ccopy_reg
_reconstructor
p0
(cpost
Post
p1
c__builtin__
object
p2
Ntp3
Rp4
(dp5
S'file_name'
p6
S'/Users/anupamjain/code/gitRepo/Questions/Algo/Java/FriendsAndFlowers.java'
p7
sS'files_covered'
p8
c__builtin__
set
p9
((lp10
g7
atp11
Rp12
sS'link'
p13
S'https://www.hackerrank.com/challenges/flowers'
p14
sb.