ccopy_reg
_reconstructor
p0
(cpost
Post
p1
c__builtin__
object
p2
Ntp3
Rp4
(dp5
S'post_file'
p6
S'/Users/anupamjain/code/gitRepo/GitToPost/posts/Java/PatchingArray'
p7
sS'files_covered'
p8
c__builtin__
set
p9
((lp10
S'/Users/anupamjain/code/gitRepo/Questions/Algo/Java/PatchingArray.java'
p11
aS'/Users/anupamjain/code/gitRepo/Questions/Algo/Java/RecurringSequenceinFraction.java'
p12
atp13
Rp14
sS'title'
p15
V\u000a            330. Patching Array\u000a          
p16
sS'file_name'
p17
g11
sS'link'
p18
S'https://leetcode.com/problems/patching-array/'
p19
sS'host_name'
p20
S'leetcode.com'
p21
sS'problem_text'
p22
g0
(cbs4.element
Tag
p23
g2
Ntp24
Rp25
(dp26
S'can_be_empty_element'
p27
I00
sS'previous_element'
p28
NsS'next_sibling'
p29
NsS'name'
p30
S'p'
p31
sS'parent'
p32
NsS'namespace'
p33
NsS'prefix'
p34
NsS'previous_sibling'
p35
NsS'attrs'
p36
(dp37
sS'next_element'
p38
g0
(g23
g2
Ntp39
Rp40
(dp41
g27
I00
sg28
g25
sg29
g0
(g23
g2
Ntp42
Rp43
(dp44
g27
I01
sg28
g0
(cbs4.element
NavigableString
p45
c__builtin__
unicode
p46
V\u000a
p47
tp48
Rp49
(dp50
g35
g0
(g23
g2
Ntp51
Rp52
(dp53
g27
I00
sg28
g0
(g45
g46
V\u000a
p54
tp55
Rp56
(dp57
g35
g0
(g23
g2
Ntp58
Rp59
(dp60
g27
I00
sg28
g0
(g45
g46
V\u000a
p61
tp62
Rp63
(dp64
g35
g0
(g23
g2
Ntp65
Rp66
(dp67
g27
I00
sg28
g0
(g45
g46
V\u000a
p68
tp69
Rp70
(dp71
g35
Nsg28
g40
sg29
g66
sg38
g66
sg32
g40
sbsg29
g63
sg30
Va
p72
sg32
g40
sg33
Nsg34
Nsg35
g70
sg36
(dp73
Vhref
p74
Vhttps://discuss.leetcode.com/category/411
p75
sVtarget
p76
V_blank
p77
sVonclick
p78
Vga('send', 'event', 'discuss', 'click', 'patching-array');
p79
sVclass
p80
(lp81
Vicon-btn
p82
aVbtn
p83
assg38
g0
(g45
g46
V\u000a
p84
tp85
Rp86
(dp87
g35
Nsg28
g66
sg29
g0
(g23
g2
Ntp88
Rp89
(dp90
g27
I00
sg28
g86
sg29
g0
(g45
g46
VDiscuss\u000a          
p91
tp92
Rp93
(dp94
g35
g89
sg28
g89
sg29
Nsg38
g63
sg32
g66
sbsg30
Vi
p95
sg32
g66
sg33
Nsg34
Nsg35
g86
sg36
(dp96
Vclass
p97
(lp98
Vfa
p99
aVfa-commenting-o
p100
asVaria-hidden
p101
Vtrue
p102
ssg38
g93
sS'parser_class'
p103
cbs4
BeautifulSoup
p104
sS'hidden'
p105
I00
sS'contents'
p106
(lp107
sbsg38
g89
sg32
g66
sbsg103
g104
sg105
I00
sg106
(lp108
g86
ag89
ag93
asbsg28
g93
sg29
g59
sg38
g59
sg32
g40
sbsg29
g56
sg30
Vbutton
p109
sg32
g40
sg33
Nsg34
Nsg35
g63
sg36
(dp110
Vtype
p111
Vbutton
p112
sVclass
p113
(lp114
Vicon-btn
p115
aVbtn
p116
asVonclick
p117
Vconfirmations.confirm_see_solution(\u000a                    event,\u000a                    '/articles/patching-array/',\u000a                    false\u000a                    );
p118
ssg38
g0
(g45
g46
V\u000a
p119
tp120
Rp121
(dp122
g35
Nsg28
g59
sg29
g0
(g23
g2
Ntp123
Rp124
(dp125
g27
I00
sg28
g121
sg29
g0
(g23
g2
Ntp126
Rp127
(dp128
g27
I00
sg28
g0
(g45
g46
V\u000a
p129
tp130
Rp131
(dp132
g35
Nsg28
g124
sg29
Nsg38
g127
sg32
g124
sbsg29
g0
(g45
g46
VSolution\u000a          
p133
tp134
Rp135
(dp136
g35
g127
sg28
g0
(g45
g46
VEditorial 
p137
tp138
Rp139
(dp140
g35
Nsg28
g127
sg29
Nsg38
g135
sg32
g127
sbsg29
Nsg38
g56
sg32
g59
sbsg30
Vspan
p141
sg32
g59
sg33
Nsg34
Nsg35
g124
sg36
(dp142
Vclass
p143
(lp144
Vhidden-xs
p145
assg38
g139
sg103
g104
sg105
I00
sg106
(lp146
g139
asbsg30
g95
sg32
g59
sg33
Nsg34
Nsg35
g121
sg36
(dp147
Vclass
p148
(lp149
Vfa
p150
aVfa-book
p151
asVaria-hidden
p152
Vtrue
p153
ssg38
g131
sg103
g104
sg105
I00
sg106
(lp154
g131
asbsg38
g124
sg32
g59
sbsg103
g104
sg105
I00
sg106
(lp155
g121
ag124
ag127
ag135
asbsg28
g135
sg29
g52
sg38
g52
sg32
g40
sbsg29
g49
sg30
g72
sg32
g40
sg33
Nsg34
Nsg35
g56
sg36
(dp156
Vhref
p157
V/problems/random-one-question/
p158
sVclass
p159
(lp160
Vicon-btn
p161
aVpull-right-sm
p162
aVbtn
p163
asVonclick
p164
Vga('send', 'event', 'pick-one-detail', 'click');
p165
ssg38
g0
(g45
g46
V\u000a
p166
tp167
Rp168
(dp169
g35
Nsg28
g52
sg29
g0
(g23
g2
Ntp170
Rp171
(dp172
g27
I00
sg28
g168
sg29
g0
(g45
g46
VPick One\u000a          
p173
tp174
Rp175
(dp176
g35
g171
sg28
g171
sg29
Nsg38
g49
sg32
g52
sbsg30
g95
sg32
g52
sg33
Nsg34
Nsg35
g168
sg36
(dp177
Vclass
p178
(lp179
Vfa
p180
aVfa-random
p181
asVaria-hidden
p182
Vtrue
p183
ssg38
g175
sg103
g104
sg105
I00
sg106
(lp184
sbsg38
g171
sg32
g52
sbsg103
g104
sg105
I00
sg106
(lp185
g168
ag171
ag175
asbsg28
g175
sg29
Nsg38
g43
sg32
g40
sbsg29
Nsg30
Vhr
p186
sg32
g25
sg33
Nsg34
Nsg35
g40
sg36
(dp187
Vclass
p188
(lp189
Vline
p190
aVdotted
p191
assg38
g0
(g45
g46
V\u000a
p192
tp193
Rp194
(dp195
g35
Nsg28
g43
sg29
Nsg38
Nsg32
g43
sbsg103
g104
sg105
I00
sg106
(lp196
g194
asbsg30
Vsection
p197
sg32
g25
sg33
Nsg34
Nsg35
Nsg36
(dp198
Vclass
p199
(lp200
Vaction
p201
aVaction-btn-set
p202
assg38
g70
sg103
g104
sg105
I00
sg106
(lp203
g70
ag66
ag63
ag59
ag56
ag52
ag49
asbsg103
Nsg105
I00
sg106
(lp204
g40
ag43
asbsS'raw_page'
p205
S'<!DOCTYPE html>\n\n\n<html>\n  <head>\n    <meta charset="utf-8">\n    <title>Patching Array - LeetCode</title>\n    <meta name="viewport" content="width=device-width, initial-scale=1.0" />\n    <meta property="og:title" content="Patching Array" />\n\n    <meta name="description" content="Given a sorted positive integer array nums and an integer n, add/patch elements to the array such that any number in range [1, n] inclusive can be formed by the sum of some elements in the array. Return the minimum number of patches required.\r\n\r\n\r\nExample 1:\r\nnums = [1, 3], n = 6\r\nReturn 1.\r\n\r\nCombinations of nums are [1], [3], [1,3], which form possible sums of: 1, 3, 4.\r\nNow if we add/patch 2 to nums, the combinations are: [1], [2], [3], [1,3], [2,3], [1,2,3].\r\nPossible sums are 1, 2, 3, 4, 5, 6, which now covers the range [1, 6].\r\nSo we only need 1 patch.\r\n\r\nExample 2:\r\nnums = [1, 5, 10], n = 20\r\nReturn 2.\r\nThe two patches can be [2, 4].\r\n\r\nExample 3:\r\nnums = [1, 2, 2], n = 5\r\nReturn 0.\r\n\r\nCredits:Special thanks to @dietpepsi for adding this problem and creating all test cases." />\n    <meta property="og:image" content="/static/images/LeetCode_Sharing.png" />\n    <meta property="og:description" content="Can you solve this problem? \xf0\x9f\xa4\x94" />\n\n\n    <link rel="apple-touch-icon" sizes="57x57" href="/apple-touch-icon-57x57.png" />\n    <link rel="apple-touch-icon" sizes="60x60" href="/apple-touch-icon-60x60.png" />\n    <link rel="apple-touch-icon" sizes="72x72" href="/apple-touch-icon-72x72.png" />\n    <link rel="apple-touch-icon" sizes="76x76" href="/apple-touch-icon-76x76.png" />\n    <link rel="apple-touch-icon" sizes="114x114" href="/apple-touch-icon-114x114.png" />\n    <link rel="apple-touch-icon" sizes="120x120" href="/apple-touch-icon-120x120.png" />\n    <link rel="apple-touch-icon" sizes="144x144" href="/apple-touch-icon-144x144.png" />\n    <link rel="apple-touch-icon" sizes="152x152" href="/apple-touch-icon-152x152.png" />\n    <link rel="apple-touch-icon" sizes="180x180" href="/apple-touch-icon-180x180.png" />\n    <link rel="icon" type="image/png" href="/favicon-16x16.png" sizes="16x16" />\n    <link rel="icon" type="image/png" href="/favicon-32x32.png" sizes="32x32" />\n    <link rel="icon" type="image/png" href="/favicon-96x96.png" sizes="96x96" />\n    <link rel="icon" type="image/png" href="/favicon-160x160.png" sizes="160x160" />\n    <link rel="icon" type="image/png" href="/favicon-192x192.png" sizes="192x192" />\n    <meta name="application-name" content="LeetCode"/>\n    <meta name="msapplication-TileColor" content="#da532c" />\n    <meta name="msapplication-TileImage" content="/mstile-144x144.png" />\n\n    <script>\n  (function(i,s,o,g,r,a,m){i[\'GoogleAnalyticsObject\']=r;i[r]=i[r]||function(){\n  (i[r].q=i[r].q||[]).push(arguments)},i[r].l=1*new Date();a=s.createElement(o)\n  ,m=s.getElementsByTagName(o)[0];a.async=1;a.src=g;m.parentNode.insertBefore(a\n  ,m)})(window,document,\'script\',\'//www.google-analytics.com/analytics.js\',\'ga\'\n  );\n  ga(\'create\', \'UA-6849839-6\', \'leetcode.com\');\n  ga(\'require\', \'displayfeatures\');\n  ga(\'send\', \'pageview\');\n</script>\n\n    <link href="/static/bootstrap/dist/css/bootstrap.min.css" rel="stylesheet">\n    <link href="/static/font-awesome/css/font-awesome.min.css" rel="stylesheet">\n    <link href="/static/bootstrap-table/dist/bootstrap-table.min.css" rel="stylesheet" />\n    \n    <style type="text/css">.select2-container{box-sizing:border-box;display:inline-block;margin:0;position:relative;vertical-align:middle}.select2-container .select2-selection--single{box-sizing:border-box;cursor:pointer;display:block;height:28px;user-select:none;-webkit-user-select:none}.select2-container .select2-selection--single .select2-selection__rendered{display:block;padding-left:8px;padding-right:20px;overflow:hidden;text-overflow:ellipsis;white-space:nowrap}.select2-container .select2-selection--single .select2-selection__clear{position:relative}.select2-container[dir="rtl"] .select2-selection--single .select2-selection__rendered{padding-right:8px;padding-left:20px}.select2-container .select2-selection--multiple{box-sizing:border-box;cursor:pointer;display:block;min-height:32px;user-select:none;-webkit-user-select:none}.select2-container .select2-selection--multiple .select2-selection__rendered{display:inline-block;overflow:hidden;padding-left:8px;text-overflow:ellipsis;white-space:nowrap}.select2-container .select2-search--inline{float:left}.select2-container .select2-search--inline .select2-search__field{box-sizing:border-box;border:0;font-size:100%;margin-top:5px;padding:0}.select2-container .select2-search--inline .select2-search__field::-webkit-search-cancel-button{-webkit-appearance:none}.select2-dropdown{background-color:white;border:1px solid #aaa;border-radius:4px;box-sizing:border-box;display:block;position:absolute;left:-100000px;width:100%;z-index:1051}.select2-results{display:block}.select2-results__options{list-style:none;margin:0;padding:0}.select2-results__option{padding:6px;user-select:none;-webkit-user-select:none}.select2-results__option[aria-selected]{cursor:pointer}.select2-container--open .select2-dropdown{left:0}.select2-container--open .select2-dropdown--above{border-bottom:0;border-bottom-left-radius:0;border-bottom-right-radius:0}.select2-container--open .select2-dropdown--below{border-top:0;border-top-left-radius:0;border-top-right-radius:0}.select2-search--dropdown{display:block;padding:4px}.select2-search--dropdown .select2-search__field{padding:4px;width:100%;box-sizing:border-box}.select2-search--dropdown .select2-search__field::-webkit-search-cancel-button{-webkit-appearance:none}.select2-search--dropdown.select2-search--hide{display:none}.select2-close-mask{border:0;margin:0;padding:0;display:block;position:fixed;left:0;top:0;min-height:100%;min-width:100%;height:auto;width:auto;opacity:0;z-index:99;background-color:#fff;filter:alpha(opacity=0)}.select2-hidden-accessible{border:0 !important;clip:rect(0 0 0 0) !important;height:1px !important;margin:-1px !important;overflow:hidden !important;padding:0 !important;position:absolute !important;width:1px !important}.select2-container--default .select2-selection--single{background-color:#fff;border:1px solid #aaa;border-radius:4px}.select2-container--default .select2-selection--single .select2-selection__rendered{color:#444;line-height:28px}.select2-container--default .select2-selection--single .select2-selection__clear{cursor:pointer;float:right;font-weight:bold}.select2-container--default .select2-selection--single .select2-selection__placeholder{color:#999}.select2-container--default .select2-selection--single .select2-selection__arrow{height:26px;position:absolute;top:1px;right:1px;width:20px}.select2-container--default .select2-selection--single .select2-selection__arrow b{border-color:#888 transparent transparent transparent;border-style:solid;border-width:5px 4px 0 4px;height:0;left:50%;margin-left:-4px;margin-top:-2px;position:absolute;top:50%;width:0}.select2-container--default[dir="rtl"] .select2-selection--single .select2-selection__clear{float:left}.select2-container--default[dir="rtl"] .select2-selection--single .select2-selection__arrow{left:1px;right:auto}.select2-container--default.select2-container--disabled .select2-selection--single{background-color:#eee;cursor:default}.select2-container--default.select2-container--disabled .select2-selection--single .select2-selection__clear{display:none}.select2-container--default.select2-container--open .select2-selection--single .select2-selection__arrow b{border-color:transparent transparent #888 transparent;border-width:0 4px 5px 4px}.select2-container--default .select2-selection--multiple{background-color:white;border:1px solid #aaa;border-radius:4px;cursor:text}.select2-container--default .select2-selection--multiple .select2-selection__rendered{box-sizing:border-box;list-style:none;margin:0;padding:0 5px;width:100%}.select2-container--default .select2-selection--multiple .select2-selection__rendered li{list-style:none}.select2-container--default .select2-selection--multiple .select2-selection__placeholder{color:#999;margin-top:5px;float:left}.select2-container--default .select2-selection--multiple .select2-selection__clear{cursor:pointer;float:right;font-weight:bold;margin-top:5px;margin-right:10px}.select2-container--default .select2-selection--multiple .select2-selection__choice{background-color:#e4e4e4;border:1px solid #aaa;border-radius:4px;cursor:default;float:left;margin-right:5px;margin-top:5px;padding:0 5px}.select2-container--default .select2-selection--multiple .select2-selection__choice__remove{color:#999;cursor:pointer;display:inline-block;font-weight:bold;margin-right:2px}.select2-container--default .select2-selection--multiple .select2-selection__choice__remove:hover{color:#333}.select2-container--default[dir="rtl"] .select2-selection--multiple .select2-selection__choice,.select2-container--default[dir="rtl"] .select2-selection--multiple .select2-selection__placeholder,.select2-container--default[dir="rtl"] .select2-selection--multiple .select2-search--inline{float:right}.select2-container--default[dir="rtl"] .select2-selection--multiple .select2-selection__choice{margin-left:5px;margin-right:auto}.select2-container--default[dir="rtl"] .select2-selection--multiple .select2-selection__choice__remove{margin-left:2px;margin-right:auto}.select2-container--default.select2-container--focus .select2-selection--multiple{border:solid black 1px;outline:0}.select2-container--default.select2-container--disabled .select2-selection--multiple{background-color:#eee;cursor:default}.select2-container--default.select2-container--disabled .select2-selection__choice__remove{display:none}.select2-container--default.select2-container--open.select2-container--above .select2-selection--single,.select2-container--default.select2-container--open.select2-container--above .select2-selection--multiple{border-top-left-radius:0;border-top-right-radius:0}.select2-container--default.select2-container--open.select2-container--below .select2-selection--single,.select2-container--default.select2-container--open.select2-container--below .select2-selection--multiple{border-bottom-left-radius:0;border-bottom-right-radius:0}.select2-container--default .select2-search--dropdown .select2-search__field{border:1px solid #aaa}.select2-container--default .select2-search--inline .select2-search__field{background:transparent;border:0;outline:0;box-shadow:none;-webkit-appearance:textfield}.select2-container--default .select2-results>.select2-results__options{max-height:200px;overflow-y:auto}.select2-container--default .select2-results__option[role=group]{padding:0}.select2-container--default .select2-results__option[aria-disabled=true]{color:#999}.select2-container--default .select2-results__option[aria-selected=true]{background-color:#ddd}.select2-container--default .select2-results__option .select2-results__option{padding-left:1em}.select2-container--default .select2-results__option .select2-results__option .select2-results__group{padding-left:0}.select2-container--default .select2-results__option .select2-results__option .select2-results__option{margin-left:-1em;padding-left:2em}.select2-container--default .select2-results__option .select2-results__option .select2-results__option .select2-results__option{margin-left:-2em;padding-left:3em}.select2-container--default .select2-results__option .select2-results__option .select2-results__option .select2-results__option .select2-results__option{margin-left:-3em;padding-left:4em}.select2-container--default .select2-results__option .select2-results__option .select2-results__option .select2-results__option .select2-results__option .select2-results__option{margin-left:-4em;padding-left:5em}.select2-container--default .select2-results__option .select2-results__option .select2-results__option .select2-results__option .select2-results__option .select2-results__option .select2-results__option{margin-left:-5em;padding-left:6em}.select2-container--default .select2-results__option--highlighted[aria-selected]{background-color:#5897fb;color:white}.select2-container--default .select2-results__group{cursor:default;display:block;padding:6px}.select2-container--classic .select2-selection--single{background-color:#f7f7f7;border:1px solid #aaa;border-radius:4px;outline:0;background-image:-webkit-linear-gradient(top,white 50%,#eee 100%);background-image:-o-linear-gradient(top,white 50%,#eee 100%);background-image:linear-gradient(to bottom,white 50%,#eee 100%);background-repeat:repeat-x;filter:progid:DXImageTransform.Microsoft.gradient(startColorstr=\'#FFFFFFFF\',endColorstr=\'#FFEEEEEE\',GradientType=0)}.select2-container--classic .select2-selection--single:focus{border:1px solid #5897fb}.select2-container--classic .select2-selection--single .select2-selection__rendered{color:#444;line-height:28px}.select2-container--classic .select2-selection--single .select2-selection__clear{cursor:pointer;float:right;font-weight:bold;margin-right:10px}.select2-container--classic .select2-selection--single .select2-selection__placeholder{color:#999}.select2-container--classic .select2-selection--single .select2-selection__arrow{background-color:#ddd;border:0;border-left:1px solid #aaa;border-top-right-radius:4px;border-bottom-right-radius:4px;height:26px;position:absolute;top:1px;right:1px;width:20px;background-image:-webkit-linear-gradient(top,#eee 50%,#ccc 100%);background-image:-o-linear-gradient(top,#eee 50%,#ccc 100%);background-image:linear-gradient(to bottom,#eee 50%,#ccc 100%);background-repeat:repeat-x;filter:progid:DXImageTransform.Microsoft.gradient(startColorstr=\'#FFEEEEEE\',endColorstr=\'#FFCCCCCC\',GradientType=0)}.select2-container--classic .select2-selection--single .select2-selection__arrow b{border-color:#888 transparent transparent transparent;border-style:solid;border-width:5px 4px 0 4px;height:0;left:50%;margin-left:-4px;margin-top:-2px;position:absolute;top:50%;width:0}.select2-container--classic[dir="rtl"] .select2-selection--single .select2-selection__clear{float:left}.select2-container--classic[dir="rtl"] .select2-selection--single .select2-selection__arrow{border:0;border-right:1px solid #aaa;border-radius:0;border-top-left-radius:4px;border-bottom-left-radius:4px;left:1px;right:auto}.select2-container--classic.select2-container--open .select2-selection--single{border:1px solid #5897fb}.select2-container--classic.select2-container--open .select2-selection--single .select2-selection__arrow{background:transparent;border:0}.select2-container--classic.select2-container--open .select2-selection--single .select2-selection__arrow b{border-color:transparent transparent #888 transparent;border-width:0 4px 5px 4px}.select2-container--classic.select2-container--open.select2-container--above .select2-selection--single{border-top:0;border-top-left-radius:0;border-top-right-radius:0;background-image:-webkit-linear-gradient(top,white 0,#eee 50%);background-image:-o-linear-gradient(top,white 0,#eee 50%);background-image:linear-gradient(to bottom,white 0,#eee 50%);background-repeat:repeat-x;filter:progid:DXImageTransform.Microsoft.gradient(startColorstr=\'#FFFFFFFF\',endColorstr=\'#FFEEEEEE\',GradientType=0)}.select2-container--classic.select2-container--open.select2-container--below .select2-selection--single{border-bottom:0;border-bottom-left-radius:0;border-bottom-right-radius:0;background-image:-webkit-linear-gradient(top,#eee 50%,white 100%);background-image:-o-linear-gradient(top,#eee 50%,white 100%);background-image:linear-gradient(to bottom,#eee 50%,white 100%);background-repeat:repeat-x;filter:progid:DXImageTransform.Microsoft.gradient(startColorstr=\'#FFEEEEEE\',endColorstr=\'#FFFFFFFF\',GradientType=0)}.select2-container--classic .select2-selection--multiple{background-color:white;border:1px solid #aaa;border-radius:4px;cursor:text;outline:0}.select2-container--classic .select2-selection--multiple:focus{border:1px solid #5897fb}.select2-container--classic .select2-selection--multiple .select2-selection__rendered{list-style:none;margin:0;padding:0 5px}.select2-container--classic .select2-selection--multiple .select2-selection__clear{display:none}.select2-container--classic .select2-selection--multiple .select2-selection__choice{background-color:#e4e4e4;border:1px solid #aaa;border-radius:4px;cursor:default;float:left;margin-right:5px;margin-top:5px;padding:0 5px}.select2-container--classic .select2-selection--multiple .select2-selection__choice__remove{color:#888;cursor:pointer;display:inline-block;font-weight:bold;margin-right:2px}.select2-container--classic .select2-selection--multiple .select2-selection__choice__remove:hover{color:#555}.select2-container--classic[dir="rtl"] .select2-selection--multiple .select2-selection__choice{float:right}.select2-container--classic[dir="rtl"] .select2-selection--multiple .select2-selection__choice{margin-left:5px;margin-right:auto}.select2-container--classic[dir="rtl"] .select2-selection--multiple .select2-selection__choice__remove{margin-left:2px;margin-right:auto}.select2-container--classic.select2-container--open .select2-selection--multiple{border:1px solid #5897fb}.select2-container--classic.select2-container--open.select2-container--above .select2-selection--multiple{border-top:0;border-top-left-radius:0;border-top-right-radius:0}.select2-container--classic.select2-container--open.select2-container--below .select2-selection--multiple{border-bottom:0;border-bottom-left-radius:0;border-bottom-right-radius:0}.select2-container--classic .select2-search--dropdown .select2-search__field{border:1px solid #aaa;outline:0}.select2-container--classic .select2-search--inline .select2-search__field{outline:0;box-shadow:none}.select2-container--classic .select2-dropdown{background-color:white;border:1px solid transparent}.select2-container--classic .select2-dropdown--above{border-bottom:0}.select2-container--classic .select2-dropdown--below{border-top:0}.select2-container--classic .select2-results>.select2-results__options{max-height:200px;overflow-y:auto}.select2-container--classic .select2-results__option[role=group]{padding:0}.select2-container--classic .select2-results__option[aria-disabled=true]{color:grey}.select2-container--classic .select2-results__option--highlighted[aria-selected]{background-color:#3875d7;color:white}.select2-container--classic .select2-results__group{cursor:default;display:block;padding:6px}.select2-container--classic.select2-container--open .select2-dropdown{border-color:#5897fb}/*!\n * Select2 Bootstrap Theme v0.1.0-beta.10 (https://select2.github.io/select2-bootstrap-theme)\n * Copyright 2015-2017 Florian Kissling and contributors (https://github.com/select2/select2-bootstrap-theme/graphs/contributors)\n * Licensed under MIT (https://github.com/select2/select2-bootstrap-theme/blob/master/LICENSE)\n */.select2-container--bootstrap{display:block}.select2-container--bootstrap .select2-selection{-webkit-box-shadow:inset 0 1px 1px rgba(0,0,0,0.075);box-shadow:inset 0 1px 1px rgba(0,0,0,0.075);background-color:#fff;border:1px solid #ccc;border-radius:4px;color:#555;font-size:14px;outline:0}.select2-container--bootstrap .select2-selection.form-control{border-radius:4px}.select2-container--bootstrap .select2-search--dropdown .select2-search__field{-webkit-box-shadow:inset 0 1px 1px rgba(0,0,0,0.075);box-shadow:inset 0 1px 1px rgba(0,0,0,0.075);background-color:#fff;border:1px solid #ccc;border-radius:4px;color:#555;font-size:14px}.select2-container--bootstrap .select2-search__field{outline:0}.select2-container--bootstrap .select2-search__field::-webkit-input-placeholder{color:#999}.select2-container--bootstrap .select2-search__field:-moz-placeholder{color:#999}.select2-container--bootstrap .select2-search__field::-moz-placeholder{color:#999;opacity:1}.select2-container--bootstrap .select2-search__field:-ms-input-placeholder{color:#999}.select2-container--bootstrap .select2-results__option{padding:6px 12px}.select2-container--bootstrap .select2-results__option[role=group]{padding:0}.select2-container--bootstrap .select2-results__option[aria-disabled=true]{color:#777;cursor:not-allowed}.select2-container--bootstrap .select2-results__option[aria-selected=true]{background-color:#f5f5f5;color:#262626}.select2-container--bootstrap .select2-results__option--highlighted[aria-selected]{background-color:#337ab7;color:#fff}.select2-container--bootstrap .select2-results__option .select2-results__option{padding:6px 12px}.select2-container--bootstrap .select2-results__option .select2-results__option .select2-results__group{padding-left:0}.select2-container--bootstrap .select2-results__option .select2-results__option .select2-results__option{margin-left:-12px;padding-left:24px}.select2-container--bootstrap .select2-results__option .select2-results__option .select2-results__option .select2-results__option{margin-left:-24px;padding-left:36px}.select2-container--bootstrap .select2-results__option .select2-results__option .select2-results__option .select2-results__option .select2-results__option{margin-left:-36px;padding-left:48px}.select2-container--bootstrap .select2-results__option .select2-results__option .select2-results__option .select2-results__option .select2-results__option .select2-results__option{margin-left:-48px;padding-left:60px}.select2-container--bootstrap .select2-results__option .select2-results__option .select2-results__option .select2-results__option .select2-results__option .select2-results__option .select2-results__option{margin-left:-60px;padding-left:72px}.select2-container--bootstrap .select2-results__group{color:#777;display:block;padding:6px 12px;font-size:12px;line-height:1.42857143;white-space:nowrap}.select2-container--bootstrap.select2-container--focus .select2-selection,.select2-container--bootstrap.select2-container--open .select2-selection{-webkit-box-shadow:inset 0 1px 1px rgba(0,0,0,0.075),0 0 8px rgba(102,175,233,0.6);box-shadow:inset 0 1px 1px rgba(0,0,0,0.075),0 0 8px rgba(102,175,233,0.6);-webkit-transition:border-color ease-in-out .15s,box-shadow ease-in-out .15s;-o-transition:border-color ease-in-out .15s,box-shadow ease-in-out .15s;-webkit-transition:border-color ease-in-out .15s,-webkit-box-shadow ease-in-out .15s;transition:border-color ease-in-out .15s,-webkit-box-shadow ease-in-out .15s;transition:border-color ease-in-out .15s,box-shadow ease-in-out .15s;transition:border-color ease-in-out .15s,box-shadow ease-in-out .15s,-webkit-box-shadow ease-in-out .15s;border-color:#66afe9}.select2-container--bootstrap.select2-container--open .select2-selection .select2-selection__arrow b{border-color:transparent transparent #999 transparent;border-width:0 4px 4px 4px}.select2-container--bootstrap.select2-container--open.select2-container--below .select2-selection{border-bottom-right-radius:0;border-bottom-left-radius:0;border-bottom-color:transparent}.select2-container--bootstrap.select2-container--open.select2-container--above .select2-selection{border-top-right-radius:0;border-top-left-radius:0;border-top-color:transparent}.select2-container--bootstrap .select2-selection__clear{color:#999;cursor:pointer;float:right;font-weight:bold;margin-right:10px}.select2-container--bootstrap .select2-selection__clear:hover{color:#333}.select2-container--bootstrap.select2-container--disabled .select2-selection{border-color:#ccc;-webkit-box-shadow:none;box-shadow:none}.select2-container--bootstrap.select2-container--disabled .select2-selection,.select2-container--bootstrap.select2-container--disabled .select2-search__field{cursor:not-allowed}.select2-container--bootstrap.select2-container--disabled .select2-selection,.select2-container--bootstrap.select2-container--disabled .select2-selection--multiple .select2-selection__choice{background-color:#eee}.select2-container--bootstrap.select2-container--disabled .select2-selection__clear,.select2-container--bootstrap.select2-container--disabled .select2-selection--multiple .select2-selection__choice__remove{display:none}.select2-container--bootstrap .select2-dropdown{-webkit-box-shadow:0 6px 12px rgba(0,0,0,0.175);box-shadow:0 6px 12px rgba(0,0,0,0.175);border-color:#66afe9;overflow-x:hidden;margin-top:-1px}.select2-container--bootstrap .select2-dropdown--above{-webkit-box-shadow:0 -6px 12px rgba(0,0,0,0.175);box-shadow:0 -6px 12px rgba(0,0,0,0.175);margin-top:1px}.select2-container--bootstrap .select2-results>.select2-results__options{max-height:200px;overflow-y:auto}.select2-container--bootstrap .select2-selection--single{height:34px;line-height:1.42857143;padding:6px 24px 6px 12px}.select2-container--bootstrap .select2-selection--single .select2-selection__arrow{position:absolute;bottom:0;right:12px;top:0;width:4px}.select2-container--bootstrap .select2-selection--single .select2-selection__arrow b{border-color:#999 transparent transparent transparent;border-style:solid;border-width:4px 4px 0 4px;height:0;left:0;margin-left:-4px;margin-top:-2px;position:absolute;top:50%;width:0}.select2-container--bootstrap .select2-selection--single .select2-selection__rendered{color:#555;padding:0}.select2-container--bootstrap .select2-selection--single .select2-selection__placeholder{color:#999}.select2-container--bootstrap .select2-selection--multiple{min-height:34px;padding:0;height:auto}.select2-container--bootstrap .select2-selection--multiple .select2-selection__rendered{-webkit-box-sizing:border-box;-moz-box-sizing:border-box;box-sizing:border-box;display:block;line-height:1.42857143;list-style:none;margin:0;overflow:hidden;padding:0;width:100%;text-overflow:ellipsis;white-space:nowrap}.select2-container--bootstrap .select2-selection--multiple .select2-selection__placeholder{color:#999;float:left;margin-top:5px}.select2-container--bootstrap .select2-selection--multiple .select2-selection__choice{color:#555;background:#fff;border:1px solid #ccc;border-radius:4px;cursor:default;float:left;margin:5px 0 0 6px;padding:0 6px}.select2-container--bootstrap .select2-selection--multiple .select2-search--inline .select2-search__field{background:transparent;padding:0 12px;height:32px;line-height:1.42857143;margin-top:0;min-width:5em}.select2-container--bootstrap .select2-selection--multiple .select2-selection__choice__remove{color:#999;cursor:pointer;display:inline-block;font-weight:bold;margin-right:3px}.select2-container--bootstrap .select2-selection--multiple .select2-selection__choice__remove:hover{color:#333}.select2-container--bootstrap .select2-selection--multiple .select2-selection__clear{margin-top:6px}.select2-container--bootstrap .select2-selection--single.input-sm,.input-group-sm .select2-container--bootstrap .select2-selection--single,.form-group-sm .select2-container--bootstrap .select2-selection--single{border-radius:3px;font-size:12px;height:30px;line-height:1.5;padding:5px 22px 5px 10px}.select2-container--bootstrap .select2-selection--single.input-sm .select2-selection__arrow b,.input-group-sm .select2-container--bootstrap .select2-selection--single .select2-selection__arrow b,.form-group-sm .select2-container--bootstrap .select2-selection--single .select2-selection__arrow b{margin-left:-5px}.select2-container--bootstrap .select2-selection--multiple.input-sm,.input-group-sm .select2-container--bootstrap .select2-selection--multiple,.form-group-sm .select2-container--bootstrap .select2-selection--multiple{min-height:30px;border-radius:3px}.select2-container--bootstrap .select2-selection--multiple.input-sm .select2-selection__choice,.input-group-sm .select2-container--bootstrap .select2-selection--multiple .select2-selection__choice,.form-group-sm .select2-container--bootstrap .select2-selection--multiple .select2-selection__choice{font-size:12px;line-height:1.5;margin:4px 0 0 5px;padding:0 5px}.select2-container--bootstrap .select2-selection--multiple.input-sm .select2-search--inline .select2-search__field,.input-group-sm .select2-container--bootstrap .select2-selection--multiple .select2-search--inline .select2-search__field,.form-group-sm .select2-container--bootstrap .select2-selection--multiple .select2-search--inline .select2-search__field{padding:0 10px;font-size:12px;height:28px;line-height:1.5}.select2-container--bootstrap .select2-selection--multiple.input-sm .select2-selection__clear,.input-group-sm .select2-container--bootstrap .select2-selection--multiple .select2-selection__clear,.form-group-sm .select2-container--bootstrap .select2-selection--multiple .select2-selection__clear{margin-top:5px}.select2-container--bootstrap .select2-selection--single.input-lg,.input-group-lg .select2-container--bootstrap .select2-selection--single,.form-group-lg .select2-container--bootstrap .select2-selection--single{border-radius:6px;font-size:18px;height:46px;line-height:1.3333333;padding:10px 31px 10px 16px}.select2-container--bootstrap .select2-selection--single.input-lg .select2-selection__arrow,.input-group-lg .select2-container--bootstrap .select2-selection--single .select2-selection__arrow,.form-group-lg .select2-container--bootstrap .select2-selection--single .select2-selection__arrow{width:5px}.select2-container--bootstrap .select2-selection--single.input-lg .select2-selection__arrow b,.input-group-lg .select2-container--bootstrap .select2-selection--single .select2-selection__arrow b,.form-group-lg .select2-container--bootstrap .select2-selection--single .select2-selection__arrow b{border-width:5px 5px 0 5px;margin-left:-5px;margin-left:-10px;margin-top:-2.5px}.select2-container--bootstrap .select2-selection--multiple.input-lg,.input-group-lg .select2-container--bootstrap .select2-selection--multiple,.form-group-lg .select2-container--bootstrap .select2-selection--multiple{min-height:46px;border-radius:6px}.select2-container--bootstrap .select2-selection--multiple.input-lg .select2-selection__choice,.input-group-lg .select2-container--bootstrap .select2-selection--multiple .select2-selection__choice,.form-group-lg .select2-container--bootstrap .select2-selection--multiple .select2-selection__choice{font-size:18px;line-height:1.3333333;border-radius:4px;margin:9px 0 0 8px;padding:0 10px}.select2-container--bootstrap .select2-selection--multiple.input-lg .select2-search--inline .select2-search__field,.input-group-lg .select2-container--bootstrap .select2-selection--multiple .select2-search--inline .select2-search__field,.form-group-lg .select2-container--bootstrap .select2-selection--multiple .select2-search--inline .select2-search__field{padding:0 16px;font-size:18px;height:44px;line-height:1.3333333}.select2-container--bootstrap .select2-selection--multiple.input-lg .select2-selection__clear,.input-group-lg .select2-container--bootstrap .select2-selection--multiple .select2-selection__clear,.form-group-lg .select2-container--bootstrap .select2-selection--multiple .select2-selection__clear{margin-top:10px}.select2-container--bootstrap .select2-selection.input-lg.select2-container--open .select2-selection--single .select2-selection__arrow b{border-color:transparent transparent #999 transparent;border-width:0 5px 5px 5px}.input-group-lg .select2-container--bootstrap .select2-selection.select2-container--open .select2-selection--single .select2-selection__arrow b{border-color:transparent transparent #999 transparent;border-width:0 5px 5px 5px}.select2-container--bootstrap[dir="rtl"] .select2-selection--single{padding-left:24px;padding-right:12px}.select2-container--bootstrap[dir="rtl"] .select2-selection--single .select2-selection__rendered{padding-right:0;padding-left:0;text-align:right}.select2-container--bootstrap[dir="rtl"] .select2-selection--single .select2-selection__clear{float:left}.select2-container--bootstrap[dir="rtl"] .select2-selection--single .select2-selection__arrow{left:12px;right:auto}.select2-container--bootstrap[dir="rtl"] .select2-selection--single .select2-selection__arrow b{margin-left:0}.select2-container--bootstrap[dir="rtl"] .select2-selection--multiple .select2-selection__choice,.select2-container--bootstrap[dir="rtl"] .select2-selection--multiple .select2-selection__placeholder,.select2-container--bootstrap[dir="rtl"] .select2-selection--multiple .select2-search--inline{float:right}.select2-container--bootstrap[dir="rtl"] .select2-selection--multiple .select2-selection__choice{margin-left:0;margin-right:6px}.select2-container--bootstrap[dir="rtl"] .select2-selection--multiple .select2-selection__choice__remove{margin-left:2px;margin-right:auto}.has-warning .select2-dropdown,.has-warning .select2-selection{border-color:#8a6d3b}.has-warning .select2-container--focus .select2-selection,.has-warning .select2-container--open .select2-selection{-webkit-box-shadow:inset 0 1px 1px rgba(0,0,0,0.075),0 0 6px #c0a16b;box-shadow:inset 0 1px 1px rgba(0,0,0,0.075),0 0 6px #c0a16b;border-color:#66512c}.has-warning.select2-drop-active{border-color:#66512c}.has-warning.select2-drop-active.select2-drop.select2-drop-above{border-top-color:#66512c}.has-error .select2-dropdown,.has-error .select2-selection{border-color:#a94442}.has-error .select2-container--focus .select2-selection,.has-error .select2-container--open .select2-selection{-webkit-box-shadow:inset 0 1px 1px rgba(0,0,0,0.075),0 0 6px #ce8483;box-shadow:inset 0 1px 1px rgba(0,0,0,0.075),0 0 6px #ce8483;border-color:#843534}.has-error.select2-drop-active{border-color:#843534}.has-error.select2-drop-active.select2-drop.select2-drop-above{border-top-color:#843534}.has-success .select2-dropdown,.has-success .select2-selection{border-color:#3c763d}.has-success .select2-container--focus .select2-selection,.has-success .select2-container--open .select2-selection{-webkit-box-shadow:inset 0 1px 1px rgba(0,0,0,0.075),0 0 6px #67b168;box-shadow:inset 0 1px 1px rgba(0,0,0,0.075),0 0 6px #67b168;border-color:#2b542c}.has-success.select2-drop-active{border-color:#2b542c}.has-success.select2-drop-active.select2-drop.select2-drop-above{border-top-color:#2b542c}.input-group>.select2-hidden-accessible:first-child+.select2-container--bootstrap>.selection>.select2-selection,.input-group>.select2-hidden-accessible:first-child+.select2-container--bootstrap>.selection>.select2-selection.form-control{border-bottom-right-radius:0;border-top-right-radius:0}.input-group>.select2-hidden-accessible:not(:first-child)+.select2-container--bootstrap:not(:last-child)>.selection>.select2-selection,.input-group>.select2-hidden-accessible:not(:first-child)+.select2-container--bootstrap:not(:last-child)>.selection>.select2-selection.form-control{border-radius:0}.input-group>.select2-hidden-accessible:not(:first-child):not(:last-child)+.select2-container--bootstrap:last-child>.selection>.select2-selection,.input-group>.select2-hidden-accessible:not(:first-child):not(:last-child)+.select2-container--bootstrap:last-child>.selection>.select2-selection.form-control{border-bottom-left-radius:0;border-top-left-radius:0}.input-group>.select2-container--bootstrap{display:table;table-layout:fixed;position:relative;z-index:2;width:100%;margin-bottom:0}.input-group>.select2-container--bootstrap>.selection>.select2-selection.form-control{float:none}.input-group>.select2-container--bootstrap.select2-container--open,.input-group>.select2-container--bootstrap.select2-container--focus{z-index:3}.input-group>.select2-container--bootstrap,.input-group>.select2-container--bootstrap .input-group-btn,.input-group>.select2-container--bootstrap .input-group-btn .btn{vertical-align:top}.form-control.select2-hidden-accessible{position:absolute !important;width:1px !important}@media(min-width:768px){.form-inline .select2-container--bootstrap{display:inline-block}}@media(min-width:480px){.pull-right-xs{float:right}}@media(min-width:768px){.pull-right-sm{float:right}}@media(min-width:992px){.pull-right-md{float:right}}@media(min-width:1200px){.pull-right-lg{float:right}}@media(min-width:480px){.pull-left-xs{float:left}}@media(min-width:768px){.pull-left-sm{float:left}}@media(min-width:992px){.pull-left-md{float:left}}@media(min-width:1200px){.pull-left-lg{float:left}}.last-col{overflow:hidden}.ptn,.pvn,.pan{padding-top:0 !important}.ptx,.pvx,.pax{padding-top:3px !important}.pts,.pvs,.pas{padding-top:5px !important}.ptm,.pvm,.pam{padding-top:10px !important}.ptl,.pvl,.pal{padding-top:20px !important}.pth,.pvh,.pah{padding-top:40px !important}.prn,.phn,.pan{padding-right:0 !important}.prx,.phx,.pax{padding-right:3px !important}.prs,.phs,.pas{padding-right:5px !important}.prm,.phm,.pam{padding-right:10px !important}.prl,.phl,.pal{padding-right:20px !important}.prh,.phh,.pah{padding-right:40px !important}.pbn,.pvn,.pan{padding-bottom:0 !important}.pbx,.pvx,.pax{padding-bottom:3px !important}.pbs,.pvs,.pas{padding-bottom:5px !important}.pbm,.pvm,.pam{padding-bottom:10px !important}.pbl,.pvl,.pal{padding-bottom:20px !important}.pbh,.pvh,.pah{padding-bottom:40px !important}.pln,.phn,.pan{padding-left:0 !important}.plx,.phx,.pax{padding-left:3px !important}.pls,.phs,.pas{padding-left:5px !important}.plm,.phm,.pam{padding-left:10px !important}.pll,.phl,.pal{padding-left:20px !important}.plh,.phh,.pah{padding-left:40px !important}.mtn,.mvn,.man{margin-top:0 !important}.mtx,.mvx,.max{margin-top:3px !important}.mts,.mvs,.mas{margin-top:5px !important}.mtm,.mvm,.mam{margin-top:10px !important}.mtl,.mvl,.mal{margin-top:20px !important}.mth,.mvh,.mah{margin-top:40px !important}.mrn,.mhn,.man{margin-right:0 !important}.mrx,.mhx,.max{margin-right:3px !important}.mrs,.mhs,.mas{margin-right:5px !important}.mrm,.mhm,.mam{margin-right:10px !important}.mrl,.mhl,.mal{margin-right:20px !important}.mrh,.mhh,.mah{margin-right:40px !important}.mbn,.mvn,.man{margin-bottom:0 !important}.mbx,.mvx,.max{margin-bottom:3px !important}.mbs,.mvs,.mas{margin-bottom:5px !important}.mbm,.mvm,.mam{margin-bottom:10px !important}.mbl,.mvl,.mal{margin-bottom:20px !important}.mbh,.mvh,.mah{margin-bottom:40px !important}.mln,.mhn,.man{margin-left:0 !important}.mlx,.mhx,.max{margin-left:3px !important}.mls,.mhs,.mas{margin-left:5px !important}.mlm,.mhm,.mam{margin-left:10px !important}.mll,.mhl,.mal{margin-left:20px !important}.mlh,.mhh,.mah{margin-left:40px !important}.panel{border-radius:5px}.list-group-item:first-child,.panel-heading{border-top-left-radius:5px;border-top-right-radius:5px}.list-group-item:last-child,.panel-footer{border-bottom-left-radius:5px;border-bottom-right-radius:5px}.list-group.lg .list-group-item:first-child{border-top-left-radius:10px;border-top-right-radius:10px}.list-group.lg .list-group-item:last-child{border-bottom-left-radius:10px;border-bottom-right-radius:10px}.alert{border-radius:5px}.callout{padding:20px;margin:20px 0;border:1px solid #eee;border-left-width:5px;border-radius:3px}.callout+.callout{margin-top:-5px}.callout h4{margin-top:0;margin-bottom:8px}.callout p:last-child{margin-bottom:0}.callout code{border-radius:3px}.callout-default{border-left-color:#777}.callout-default h4{color:#777}.callout-primary{border-left-color:#428bca}.callout-primary h4{color:#428bca}.callout-success{border-left-color:#5cb85c}.callout-success h4{color:#5cb85c}.callout-danger{border-left-color:#d9534f}.callout-danger h4{color:#d9534f}.callout-warning{border-left-color:#f0ad4e}.callout-warning h4{color:#f0ad4e}.callout-info{border-left-color:#5bc0de}.callout-info h4{color:#5bc0de}.btn,button{border-radius:5px}button.icon-btn,a.icon-btn{display:inline-block;margin-bottom:0;text-align:center;vertical-align:middle;touch-action:manipulation;cursor:pointer;background-image:none;border:1px solid #CCC;white-space:nowrap;line-height:20px;border-radius:4px;color:#222;text-decoration:none;font-size:14px;background-color:transparent;padding:8px 16px 8px 16px}@media(max-width:767px){button.icon-btn,a.icon-btn{font-size:12px;padding:8px 8px 8px 8px}}button.icon-btn>i,a.icon-btn>i{padding-right:8px}button.icon-btn:hover,a.icon-btn:hover,button.icon-btn:focus,a.icon-btn:focus,button.icon-btn.focus,a.icon-btn.focus{background-color:#f5f5f5;color:#222;text-decoration:none}button.icon-btn:active,a.icon-btn:active,button.icon-btn.active,a.icon-btn.active{color:#222;outline:0;background-image:none}button.icon-btn.disabled,a.icon-btn.disabled,button.icon-btn[disabled],a.icon-btn[disabled],fieldset[disabled] button.icon-btn,fieldset[disabled] a.icon-btn{cursor:not-allowed;opacity:.6}abutton.icon-btn,aa.icon-btn{text-decoration:none}abutton.icon-btn.disabled,aa.icon-btn.disabled,fieldset[disabled] abutton.icon-btn,fieldset[disabled] aa.icon-btn{pointer-events:none}button.tab-item.icon-btn,a.tab-item.icon-btn{color:#666;border:0;border-bottom-right-radius:0;border-bottom-left-radius:0;margin-bottom:-1px;font-size:16px;padding:15px 16px 15px 16px}@media(max-width:767px){button.tab-item.icon-btn,a.tab-item.icon-btn{font-size:12px;padding:8px 8px 3px 8px;background-color:#f5f5f5;line-height:16px}}@media(max-width:767px){button.tab-item.icon-btn>i,a.tab-item.icon-btn>i{padding-right:0;font-size:16px;display:block;text-align:center;min-width:60px}}button.tab-item.icon-btn.active,a.tab-item.icon-btn.active{color:#222;border:1px solid #9d9d9d;border-bottom-color:white;background-color:white;padding-bottom:17px}@media(max-width:768px){button.tab-item.icon-btn.active,a.tab-item.icon-btn.active{padding-bottom:5px}}.tab-btn .btn,.btn-tab .btn,.tab-btn button,.btn-tab button{position:relative;margin-left:-1px;z-index:2}.tab-btn .btn:first-child,.btn-tab .btn:first-child,.tab-btn button:first-child,.btn-tab button:first-child{margin-left:0;border-top-right-radius:0;border-bottom-right-radius:0}.tab-btn .btn:last-child,.btn-tab .btn:last-child,.tab-btn button:last-child,.btn-tab button:last-child{border-top-left-radius:0;border-bottom-left-radius:0}.tab-btn .btn:not(:first-child):not(:last-child),.btn-tab .btn:not(:first-child):not(:last-child),.tab-btn button:not(:first-child):not(:last-child),.btn-tab button:not(:first-child):not(:last-child){border-radius:0}.tab-btn .btn:hover,.btn-tab .btn:hover,.tab-btn button:hover,.btn-tab button:hover,.tab-btn .btn:active,.btn-tab .btn:active,.tab-btn button:active,.btn-tab button:active,.tab-btn .btn.active,.btn-tab .btn.active,.tab-btn button.active,.btn-tab button.active,.tab-btn .btn:focus,.btn-tab .btn:focus,.tab-btn button:focus,.btn-tab button:focus{z-index:3}.btn-round,.round-btn{border-radius:1020px}.btn-hollow{background:none !important}.btn-hollow:hover{background:#fafafa !important;color:inherit}.btn-hollow.dotted{border-style:dotted}.btn-hollow.dashed{border-style:dashed}.select{position:relative;display:inline-block;vertical-align:top;min-width:220px;width:auto}.form-group .select{width:100%}.form-group .select>.select2-choice{width:100%}.select.form-control{border:0;padding:0;height:auto}.select2-container{display:inline-block}.select2-results__option{padding:12px 16px}.text-default{font-size:14px}.text-sm{font-size:10px}.text-md{font-size:16px}.text-lg{font-size:20px}.text-xl{font-size:36px}.text-black{color:black !important}.text-bright{color:#afafaf !important}.text-grey{color:#5a5a5a !important}.text-gray{color:#5a5a5a !important}.text-green,.text-success{color:#449d44 !important}.text-primary{color:#337ab7 !important}.text-warning,.text-yellow{color:#fea116 !important}.text-danger,.text-red{color:#d05451 !important}.text-info,.text-blue{color:#08c !important}.text-orange{color:#fea116 !important}.text-Easy,.text-easy{color:#449d44}.text-Medium,.text-medium{color:#fea116}.text-Hard,.text-hard{color:#d05451}.label-Medium,.label-medium{background:#f0ad4e}.label-Hard,.label-hard{background:#d9534f}.label-Easy,.label-easy{background:#5cb85c}.text-100{font-weight:100}.text-200{font-weight:200}.text-300{font-weight:300}.text-400{font-weight:400}.text-500{font-weight:500}.text-bold{font-weight:bold}.text-italic{font-style:italic}.text-oblique{font-style:oblique}.text-center{text-align:center}.text-left{text-align:left}.text-right{text-align:right}.text-justify{text-align:justify}.new,#new{display:inline-block;padding:0;margin:0;font-weight:400;color:orange !important;font-size:14px}lc,.lc{font-family:TypoRound}.placeholder-text{padding:8rem 4rem;text-align:center;font-size:2rem;color:#dadada}.placeholder-text.large{font-size:3rem}.round{border-radius:1020px}.modal-center{display:table;height:100%;width:100%}.modal-center .modal-dialog{vertical-align:middle;display:table-cell}.modal-center .modal-dialog .modal-content{width:inherit;height:inherit;margin:0 auto}.hr,.line{border-radius:0;border-top:1px #ecf0f1 inherit;border-bottom:0;border-right:0;border-left:0;padding:0;margin:0}.hr.dotted,.line.dotted{border-top-style:dotted}.hr.dashed,.line.dashed{border-top-style:dashed}.hr.groove,.line.groove{border-top-style:groove}.hr.double,.line.double{border-top-style:double}.hr.ridge,.line.ridge{border-top-style:ridge}.hr.outset,.line.outset{border-top-style:outset}.hr.inset,.line.inset{border-top-style:inset}.hr.solid,.line.solid{border-top-style:solid}body{min-width:320px}.question-section{font-size:16px;margin:40px 0}.question-section img{box-sizing:border-box;margin:10px 0 20px;width:100%;box-shadow:4px 4px 10px #888}.question-section blockquote{font-size:20px;font-style:italic}.question-section p{margin-left:25px}.lower-alpha{margin:20px 0;list-style-type:lower-roman}.lower-alpha pre{margin:10px 0}.status-accepted{color:#3c763d}.favor{color:#f0ad4e}.not-favor{color:grey}.add-favor{cursor:pointer;position:relative;top:-3px}body{overflow-y:scroll}a{color:#08c}a:hover{color:#005580}.form-signin{max-width:300px;padding:19px 29px 29px;margin:0 auto 20px;background-color:#fff;border:1px solid #e5e5e5;border-radius:5px;box-shadow:0 1px 2px rgba(0,0,0,0.05)}.block-center{display:block;margin-left:auto;margin-right:auto}.message{border:1px solid #e6db55;background-color:#ffffe0;padding:15px 30px 15px 15px;margin:20px 0}.navbar-extra{border-radius:0;margin-bottom:30px}#support-link{position:fixed;right:5px;bottom:5px;background:white;border:1px solid #e0e0e0;padding-top:5px;padding-bottom:5px;padding-right:10px;padding-left:10px;border-radius:5px;box-shadow:0 1px 3px rgba(0,0,0,0.1);color:#979faf;text-decoration:none;transition:all .4s;-o-transition:all .4s;-moz-transition:all .4s;-webkit-transition:all .4s}@media(min-width:768px){#support-link{padding-top:10px;padding-bottom:10px;padding-right:15px;padding-left:15px}}#support-link:hover{background:#ecf0f1}@media screen and (max-width:413px){#support-link{display:none}}.glyphicon-envelope{text-align:center;line-height:26px;margin-right:5px;position:relative}[ng-cloak]{display:none}.editor{font-size:14px !important;border:1px solid #e0e0e0;height:475px}.ac{display:inline-block;height:16px;width:16px;background-image:url(\'/static/images/correct.png?28cd2c4d7418\');background-repeat:no-repeat}.notac{display:inline-block;height:16px;width:16px;background-image:url(\'/static/images/question.png?28cd2c4d7418\');background-repeat:no-repeat}@media(min-width:768px){#navbar-right li.dropdown a.dropdown-toggle{padding-right:20px;white-space:nowrap;max-width:100px;overflow:hidden;text-overflow:ellipsis !important}#navbar-right li.dropdown a.dropdown-toggle span.caret{position:absolute;right:10px;top:23px}}@media(min-width:992px){#navbar-right li.dropdown a.dropdown-toggle{max-width:160px !important}}@media(min-width:1200px){#navbar-right li.dropdown a.dropdown-toggle{max-width:300px !important;padding-right:20px}}@media(min-width:768px){ul.nav li.dropdown:hover>ul.dropdown-menu{display:block;margin-top:0;border-top-left-radius:0;border-top-right-radius:0}}.navitem-highlight{color:#fea116}.navitem-admin{color:red}#bookNav a:hover span,#storyNav a:hover span,#storeNav a:hover span,#donateNav a:hover span{color:#fbc12a !important}.navbar{box-shadow:0 5px 15px 0 rgba(0,0,0,0.08);border-right:0;border-left:0}.navbar.navbar-inverse .navbar-nav>.open>a,.navbar.navbar-inverse .navbar-nav>.open>a:focus,.navbar.navbar-inverse .navbar-nav>.open>a:hover{background:none !important}.navbar .navbar-brand{padding-top:10px;padding-left:0}@media(max-width:767px){.navbar .navbar-brand{padding-left:12px}}.navbar .navbar-brand img{-webkit-filter:brightness(0.85);filter:brightness(0.85);transition:all .4s;-o-transition:all .4s;-moz-transition:all .4s;-webkit-transition:all .4s}.navbar .navbar-brand:hover img{-webkit-filter:none;filter:none}.navbar #dot a{color:#9d9d9d}@media(max-width:767px){.navbar #dot{display:none}}.navbar .sign-up{margin-top:8px}.navbar .sign-up .btn:last-child{margin-left:8px}@media(max-width:767px){.navbar .sign-up{padding-left:12px}}@-webkit-keyframes tabcolorchange{0%{color:#fea116}100%{color:#fbc12a}}@media(min-width:768px){.navbar .subscribe-sm,.navbar .user-sm{display:none}}@media(max-width:767px){.navbar .subscribe-btn{display:none}}.navbar .subscribe-sm{background-color:#373737}.navbar .subscribe-sm *{-webkit-animation:tabcolorchange .8s infinite alternate}.navbar .subscribe-btn{border-radius:5px;background:#fea116;background:linear-gradient(#fbc12a,#fea116);opacity:.95;margin-top:10px;margin-bottom:10px;margin-left:5px;margin-right:5px}.navbar .subscribe-btn a{color:white !important;padding-top:5px;padding-bottom:5px;padding-left:10px;padding-right:10px}.navbar .subscribe-btn:hover{background:#d58512;background:linear-gradient(#d58512,#fea116)}@media(min-width:768px){.container{position:relative}#navbar-right{position:absolute;display:inline-block;right:0}}html,body{height:100%}.content-wrapper{box-sizing:border-box;min-height:100%}.top-buffer{margin-top:20px}.ng-fade{opacity:1}.ng-fade.ng-hide{opacity:0}.ng-fade.ng-hide-remove{-webkit-animation:fadeInLeft 1s;animation:fadeInLeft 1s}.invisible{visibility:hidden}.visible{visibility:visible}.notransition{transition:none !important}a.menu-links{cursor:pointer}p.comment{color:darkgray}p.comment a{color:lightskyblue}.btn.disabled{pointer-events:auto}.form-control-inline{min-width:0;width:auto;display:inline}@font-face{font-family:TypoRound;font-weight:normal;src:url(\'/static/font/Typo_Round_Regular.otf?28cd2c4d7418\') format("opentype")}@font-face{font-family:TypoRound;font-style:italic;src:url(\'/static/font/Typo_Round_Italic.otf?28cd2c4d7418\') format("opentype")}@font-face{font-family:TypoRound;font-weight:bold;src:url(\'/static/font/Typo_Round_Bold.otf?28cd2c4d7418\') format("opentype")}@font-face{font-family:TypoRound;font-weight:bold;font-style:italic;src:url(\'/static/font/Typo_Round_Bold_Italic.otf?28cd2c4d7418\') format("opentype")}@font-face{font-family:TypoRound;font-weight:thin;src:url(\'/static/font/Typo_Round_Thin.otf?28cd2c4d7418\') format("opentype")}@font-face{font-family:TypoRound;font-weight:thin;font-style:italic;src:url(\'/static/font/Typo_Round_Thin_Italic.otf?28cd2c4d7418\') format("opentype")}@font-face{font-family:TypoRound;font-weight:lighter;src:url(\'/static/font/Typo_Round_Light.otf?28cd2c4d7418\') format("opentype")}@font-face{font-family:TypoRound;font-weight:lighter;font-style:italic;src:url(\'/static/font/Typo_Round_Light_Italic.otf?28cd2c4d7418\') format("opentype")}/*! jQuery UI - v1.12.1 - 2016-09-14\n* http://jqueryui.com\n* Copyright jQuery Foundation and other contributors; Licensed MIT */.ui-widget{font-family:Arial,Helvetica,sans-serif;font-size:1em}.ui-widget .ui-widget{font-size:1em}.ui-widget input,.ui-widget select,.ui-widget textarea,.ui-widget button{font-family:Arial,Helvetica,sans-serif;font-size:1em}.ui-widget.ui-widget-content{border:1px solid #c5c5c5}.ui-widget-content{border:1px solid #ddd;background:#fff;color:#333}.ui-widget-content a{color:#333}.ui-widget-header{border:1px solid #ddd;background:#e9e9e9;color:#333;font-weight:bold}.ui-widget-header a{color:#333}.ui-state-default,.ui-widget-content .ui-state-default,.ui-widget-header .ui-state-default,.ui-button,html .ui-button.ui-state-disabled:hover,html .ui-button.ui-state-disabled:active{border:1px solid #c5c5c5;background:#f6f6f6;font-weight:normal;color:#454545}.ui-state-default a,.ui-state-default a:link,.ui-state-default a:visited,a.ui-button,a:link.ui-button,a:visited.ui-button,.ui-button{color:#454545;text-decoration:none}.ui-state-hover,.ui-widget-content .ui-state-hover,.ui-widget-header .ui-state-hover,.ui-state-focus,.ui-widget-content .ui-state-focus,.ui-widget-header .ui-state-focus,.ui-button:hover,.ui-button:focus{border:1px solid #ccc;background:#ededed;font-weight:normal;color:#2b2b2b}.ui-state-hover a,.ui-state-hover a:hover,.ui-state-hover a:link,.ui-state-hover a:visited,.ui-state-focus a,.ui-state-focus a:hover,.ui-state-focus a:link,.ui-state-focus a:visited,a.ui-button:hover,a.ui-button:focus{color:#2b2b2b;text-decoration:none}.ui-visual-focus{box-shadow:0 0 3px 1px #5e9ed6}.ui-state-active,.ui-widget-content .ui-state-active,.ui-widget-header .ui-state-active,a.ui-button:active,.ui-button:active,.ui-button.ui-state-active:hover{border:1px solid #003eff;background:#007fff;font-weight:normal;color:#fff}.ui-icon-background,.ui-state-active .ui-icon-background{border:#003eff;background-color:#fff}.ui-state-active a,.ui-state-active a:link,.ui-state-active a:visited{color:#fff;text-decoration:none}.ui-state-highlight,.ui-widget-content .ui-state-highlight,.ui-widget-header .ui-state-highlight{border:1px solid #dad55e;background:#fffa90;color:#777620}.ui-state-checked{border:1px solid #dad55e;background:#fffa90}.ui-state-highlight a,.ui-widget-content .ui-state-highlight a,.ui-widget-header .ui-state-highlight a{color:#777620}.ui-state-error,.ui-widget-content .ui-state-error,.ui-widget-header .ui-state-error{border:1px solid #f1a899;background:#fddfdf;color:#5f3f3f}.ui-state-error a,.ui-widget-content .ui-state-error a,.ui-widget-header .ui-state-error a{color:#5f3f3f}.ui-state-error-text,.ui-widget-content .ui-state-error-text,.ui-widget-header .ui-state-error-text{color:#5f3f3f}.ui-priority-primary,.ui-widget-content .ui-priority-primary,.ui-widget-header .ui-priority-primary{font-weight:bold}.ui-priority-secondary,.ui-widget-content .ui-priority-secondary,.ui-widget-header .ui-priority-secondary{opacity:.7;filter:Alpha(Opacity=70);font-weight:normal}.ui-state-disabled,.ui-widget-content .ui-state-disabled,.ui-widget-header .ui-state-disabled{opacity:.35;filter:Alpha(Opacity=35);background-image:none}.ui-state-disabled .ui-icon{filter:Alpha(Opacity=35)}.ui-icon{width:16px;height:16px}.ui-icon,.ui-widget-content .ui-icon{background-image:url("/static/jquery-ui-dist/images/ui-icons_444444_256x240.png?432206291bfc")}.ui-widget-header .ui-icon{background-image:url("/static/jquery-ui-dist/images/ui-icons_444444_256x240.png?432206291bfc")}.ui-state-hover .ui-icon,.ui-state-focus .ui-icon,.ui-button:hover .ui-icon,.ui-button:focus .ui-icon{background-image:url("/static/jquery-ui-dist/images/ui-icons_555555_256x240.png?432206291bfc")}.ui-state-active .ui-icon,.ui-button:active .ui-icon{background-image:url("/static/jquery-ui-dist/images/ui-icons_ffffff_256x240.png?432206291bfc")}.ui-state-highlight .ui-icon,.ui-button .ui-state-highlight.ui-icon{background-image:url("/static/jquery-ui-dist/images/ui-icons_777620_256x240.png?432206291bfc")}.ui-state-error .ui-icon,.ui-state-error-text .ui-icon{background-image:url("/static/jquery-ui-dist/images/ui-icons_cc0000_256x240.png?432206291bfc")}.ui-button .ui-icon{background-image:url("/static/jquery-ui-dist/images/ui-icons_777777_256x240.png?432206291bfc")}.ui-icon-blank{background-position:16px 16px}.ui-icon-caret-1-n{background-position:0 0}.ui-icon-caret-1-ne{background-position:-16px 0}.ui-icon-caret-1-e{background-position:-32px 0}.ui-icon-caret-1-se{background-position:-48px 0}.ui-icon-caret-1-s{background-position:-65px 0}.ui-icon-caret-1-sw{background-position:-80px 0}.ui-icon-caret-1-w{background-position:-96px 0}.ui-icon-caret-1-nw{background-position:-112px 0}.ui-icon-caret-2-n-s{background-position:-128px 0}.ui-icon-caret-2-e-w{background-position:-144px 0}.ui-icon-triangle-1-n{background-position:0 -16px}.ui-icon-triangle-1-ne{background-position:-16px -16px}.ui-icon-triangle-1-e{background-position:-32px -16px}.ui-icon-triangle-1-se{background-position:-48px -16px}.ui-icon-triangle-1-s{background-position:-65px -16px}.ui-icon-triangle-1-sw{background-position:-80px -16px}.ui-icon-triangle-1-w{background-position:-96px -16px}.ui-icon-triangle-1-nw{background-position:-112px -16px}.ui-icon-triangle-2-n-s{background-position:-128px -16px}.ui-icon-triangle-2-e-w{background-position:-144px -16px}.ui-icon-arrow-1-n{background-position:0 -32px}.ui-icon-arrow-1-ne{background-position:-16px -32px}.ui-icon-arrow-1-e{background-position:-32px -32px}.ui-icon-arrow-1-se{background-position:-48px -32px}.ui-icon-arrow-1-s{background-position:-65px -32px}.ui-icon-arrow-1-sw{background-position:-80px -32px}.ui-icon-arrow-1-w{background-position:-96px -32px}.ui-icon-arrow-1-nw{background-position:-112px -32px}.ui-icon-arrow-2-n-s{background-position:-128px -32px}.ui-icon-arrow-2-ne-sw{background-position:-144px -32px}.ui-icon-arrow-2-e-w{background-position:-160px -32px}.ui-icon-arrow-2-se-nw{background-position:-176px -32px}.ui-icon-arrowstop-1-n{background-position:-192px -32px}.ui-icon-arrowstop-1-e{background-position:-208px -32px}.ui-icon-arrowstop-1-s{background-position:-224px -32px}.ui-icon-arrowstop-1-w{background-position:-240px -32px}.ui-icon-arrowthick-1-n{background-position:1px -48px}.ui-icon-arrowthick-1-ne{background-position:-16px -48px}.ui-icon-arrowthick-1-e{background-position:-32px -48px}.ui-icon-arrowthick-1-se{background-position:-48px -48px}.ui-icon-arrowthick-1-s{background-position:-64px -48px}.ui-icon-arrowthick-1-sw{background-position:-80px -48px}.ui-icon-arrowthick-1-w{background-position:-96px -48px}.ui-icon-arrowthick-1-nw{background-position:-112px -48px}.ui-icon-arrowthick-2-n-s{background-position:-128px -48px}.ui-icon-arrowthick-2-ne-sw{background-position:-144px -48px}.ui-icon-arrowthick-2-e-w{background-position:-160px -48px}.ui-icon-arrowthick-2-se-nw{background-position:-176px -48px}.ui-icon-arrowthickstop-1-n{background-position:-192px -48px}.ui-icon-arrowthickstop-1-e{background-position:-208px -48px}.ui-icon-arrowthickstop-1-s{background-position:-224px -48px}.ui-icon-arrowthickstop-1-w{background-position:-240px -48px}.ui-icon-arrowreturnthick-1-w{background-position:0 -64px}.ui-icon-arrowreturnthick-1-n{background-position:-16px -64px}.ui-icon-arrowreturnthick-1-e{background-position:-32px -64px}.ui-icon-arrowreturnthick-1-s{background-position:-48px -64px}.ui-icon-arrowreturn-1-w{background-position:-64px -64px}.ui-icon-arrowreturn-1-n{background-position:-80px -64px}.ui-icon-arrowreturn-1-e{background-position:-96px -64px}.ui-icon-arrowreturn-1-s{background-position:-112px -64px}.ui-icon-arrowrefresh-1-w{background-position:-128px -64px}.ui-icon-arrowrefresh-1-n{background-position:-144px -64px}.ui-icon-arrowrefresh-1-e{background-position:-160px -64px}.ui-icon-arrowrefresh-1-s{background-position:-176px -64px}.ui-icon-arrow-4{background-position:0 -80px}.ui-icon-arrow-4-diag{background-position:-16px -80px}.ui-icon-extlink{background-position:-32px -80px}.ui-icon-newwin{background-position:-48px -80px}.ui-icon-refresh{background-position:-64px -80px}.ui-icon-shuffle{background-position:-80px -80px}.ui-icon-transfer-e-w{background-position:-96px -80px}.ui-icon-transferthick-e-w{background-position:-112px -80px}.ui-icon-folder-collapsed{background-position:0 -96px}.ui-icon-folder-open{background-position:-16px -96px}.ui-icon-document{background-position:-32px -96px}.ui-icon-document-b{background-position:-48px -96px}.ui-icon-note{background-position:-64px -96px}.ui-icon-mail-closed{background-position:-80px -96px}.ui-icon-mail-open{background-position:-96px -96px}.ui-icon-suitcase{background-position:-112px -96px}.ui-icon-comment{background-position:-128px -96px}.ui-icon-person{background-position:-144px -96px}.ui-icon-print{background-position:-160px -96px}.ui-icon-trash{background-position:-176px -96px}.ui-icon-locked{background-position:-192px -96px}.ui-icon-unlocked{background-position:-208px -96px}.ui-icon-bookmark{background-position:-224px -96px}.ui-icon-tag{background-position:-240px -96px}.ui-icon-home{background-position:0 -112px}.ui-icon-flag{background-position:-16px -112px}.ui-icon-calendar{background-position:-32px -112px}.ui-icon-cart{background-position:-48px -112px}.ui-icon-pencil{background-position:-64px -112px}.ui-icon-clock{background-position:-80px -112px}.ui-icon-disk{background-position:-96px -112px}.ui-icon-calculator{background-position:-112px -112px}.ui-icon-zoomin{background-position:-128px -112px}.ui-icon-zoomout{background-position:-144px -112px}.ui-icon-search{background-position:-160px -112px}.ui-icon-wrench{background-position:-176px -112px}.ui-icon-gear{background-position:-192px -112px}.ui-icon-heart{background-position:-208px -112px}.ui-icon-star{background-position:-224px -112px}.ui-icon-link{background-position:-240px -112px}.ui-icon-cancel{background-position:0 -128px}.ui-icon-plus{background-position:-16px -128px}.ui-icon-plusthick{background-position:-32px -128px}.ui-icon-minus{background-position:-48px -128px}.ui-icon-minusthick{background-position:-64px -128px}.ui-icon-close{background-position:-80px -128px}.ui-icon-closethick{background-position:-96px -128px}.ui-icon-key{background-position:-112px -128px}.ui-icon-lightbulb{background-position:-128px -128px}.ui-icon-scissors{background-position:-144px -128px}.ui-icon-clipboard{background-position:-160px -128px}.ui-icon-copy{background-position:-176px -128px}.ui-icon-contact{background-position:-192px -128px}.ui-icon-image{background-position:-208px -128px}.ui-icon-video{background-position:-224px -128px}.ui-icon-script{background-position:-240px -128px}.ui-icon-alert{background-position:0 -144px}.ui-icon-info{background-position:-16px -144px}.ui-icon-notice{background-position:-32px -144px}.ui-icon-help{background-position:-48px -144px}.ui-icon-check{background-position:-64px -144px}.ui-icon-bullet{background-position:-80px -144px}.ui-icon-radio-on{background-position:-96px -144px}.ui-icon-radio-off{background-position:-112px -144px}.ui-icon-pin-w{background-position:-128px -144px}.ui-icon-pin-s{background-position:-144px -144px}.ui-icon-play{background-position:0 -160px}.ui-icon-pause{background-position:-16px -160px}.ui-icon-seek-next{background-position:-32px -160px}.ui-icon-seek-prev{background-position:-48px -160px}.ui-icon-seek-end{background-position:-64px -160px}.ui-icon-seek-start{background-position:-80px -160px}.ui-icon-seek-first{background-position:-80px -160px}.ui-icon-stop{background-position:-96px -160px}.ui-icon-eject{background-position:-112px -160px}.ui-icon-volume-off{background-position:-128px -160px}.ui-icon-volume-on{background-position:-144px -160px}.ui-icon-power{background-position:0 -176px}.ui-icon-signal-diag{background-position:-16px -176px}.ui-icon-signal{background-position:-32px -176px}.ui-icon-battery-0{background-position:-48px -176px}.ui-icon-battery-1{background-position:-64px -176px}.ui-icon-battery-2{background-position:-80px -176px}.ui-icon-battery-3{background-position:-96px -176px}.ui-icon-circle-plus{background-position:0 -192px}.ui-icon-circle-minus{background-position:-16px -192px}.ui-icon-circle-close{background-position:-32px -192px}.ui-icon-circle-triangle-e{background-position:-48px -192px}.ui-icon-circle-triangle-s{background-position:-64px -192px}.ui-icon-circle-triangle-w{background-position:-80px -192px}.ui-icon-circle-triangle-n{background-position:-96px -192px}.ui-icon-circle-arrow-e{background-position:-112px -192px}.ui-icon-circle-arrow-s{background-position:-128px -192px}.ui-icon-circle-arrow-w{background-position:-144px -192px}.ui-icon-circle-arrow-n{background-position:-160px -192px}.ui-icon-circle-zoomin{background-position:-176px -192px}.ui-icon-circle-zoomout{background-position:-192px -192px}.ui-icon-circle-check{background-position:-208px -192px}.ui-icon-circlesmall-plus{background-position:0 -208px}.ui-icon-circlesmall-minus{background-position:-16px -208px}.ui-icon-circlesmall-close{background-position:-32px -208px}.ui-icon-squaresmall-plus{background-position:-48px -208px}.ui-icon-squaresmall-minus{background-position:-64px -208px}.ui-icon-squaresmall-close{background-position:-80px -208px}.ui-icon-grip-dotted-vertical{background-position:0 -224px}.ui-icon-grip-dotted-horizontal{background-position:-16px -224px}.ui-icon-grip-solid-vertical{background-position:-32px -224px}.ui-icon-grip-solid-horizontal{background-position:-48px -224px}.ui-icon-gripsmall-diagonal-se{background-position:-64px -224px}.ui-icon-grip-diagonal-se{background-position:-80px -224px}.ui-corner-all,.ui-corner-top,.ui-corner-left,.ui-corner-tl{border-top-left-radius:3px}.ui-corner-all,.ui-corner-top,.ui-corner-right,.ui-corner-tr{border-top-right-radius:3px}.ui-corner-all,.ui-corner-bottom,.ui-corner-left,.ui-corner-bl{border-bottom-left-radius:3px}.ui-corner-all,.ui-corner-bottom,.ui-corner-right,.ui-corner-br{border-bottom-right-radius:3px}.ui-widget-overlay{background:#aaa;opacity:.003;filter:Alpha(Opacity=.3)}.ui-widget-shadow{-webkit-box-shadow:0 0 5px #666;box-shadow:0 0 5px #666}</style>\n    \n     \n<link rel="stylesheet" href="/static/CACHE/css/4b7a12e10780.css" type="text/css" />\n\n    <script src="/static/jquery/dist/jquery.min.js"></script>\n    <script src="/static/angular/angular.min.js"></script>\n    <script src="/static/jquery-ui-dist/jquery-ui.min.js"></script>\n\n    <!-- HTML5 Shim and Respond.js IE8 support of HTML5 elements and media queries -->\n    <!-- WARNING: Respond.js doesn\'t work if you view the page via file:// -->\n    <!--[if lt IE 9]>\n      <script src="/static/html5shiv/dist/html5shiv.min.js"></script>\n      <script src="/static/respond.js/dest/respond.min.js"></script>\n    <![endif]-->\n  </head>\n\n  <body>\n    <div class="content-wrapper">\n      \n\n      <div class="navbar navbar-inverse navbar-extra">\n        <div class="container">\n          <div class="navbar-header">\n            <button type="button" class="navbar-toggle" data-toggle="collapse" data-target=".navbar-collapse">\n              <span class="icon-bar"></span>\n              <span class="icon-bar"></span>\n              <span class="icon-bar"></span>\n            </button>\n            <a class="navbar-brand" href="/">\n              <img src="/static/images/LeetCode_nav.png" height="30px" alt="LeetCode">\n            </a>\n          </div>\n          <div class="navbar-collapse collapse">\n            <ul class="nav navbar-nav">\n              <li id="storeNav" class="visible-sm">\n                <a href="/store/" onclick="ga(\'send\', \'event\', \'story\', \'click\', \'nav\');">\n                  <span class="navitem-highlight"><i class="fa fa-gift" aria-hidden="true"></i></span>\n                </a>\n              </li>\n              \n              <li id="subscribe" class="subscribe-sm">\n                <a href="/subscribe/">\n                  <i class="fa fa-star" aria-hidden="true"></i> &nbsp;Premium\n                </a>\n              </li>\n              \n              <li id="problemsNav"><a href="/problemset/all/">Problems</a></li>\n              \n                <li class="dropdown">\n                  <a href="#" class="dropdown-toggle" data-toggle="dropdown"\n                     role="button" aria-expanded="false">\n                    Mock\n                    <span class="caret"></span>\n                  </a>\n                  <ul class="dropdown-menu">\n                    <li>\n                      <a href="/mockinterview/">Mock Interview</a>\n                    </li>\n                    <li>\n                      <a href="/mockinterview/session/list/">Past Sessions</a>\n                    </li>\n                  </ul>\n                </li>\n              \n              \n                \n                  <li><a href="/contest/">Contest</a></li>\n                \n              \n              \n                <li id="coursesNav" class="hide"><a href="/courses/">Courses</a></li>\n              \n              <li id="articlesNav"><a href="/articles/">Articles</a></li>\n              <!-- TODO: not hard code -->\n              \n              <li id=""><a href="https://discuss.leetcode.com" target="_blank">Discuss</a></li>\n              \n              <li id="dot" class="hidden-sm">\n                <a>\xe2\x80\xa2</a>\n              </li>\n              <li id="storeNav" class="hidden-sm">\n                <a href="/store/" onclick="ga(\'send\', \'event\', \'story\', \'click\', \'nav\');">\n                  <span class="navitem-highlight"><i class="fa fa-gift" aria-hidden="true"></i>&nbsp; Store</span>\n                </a>\n              </li>\n              \n              <li id="bookNav" class="hidden-sm"><a onclick="ga(\'send\', \'event\', \'book\', \'click\', \'nav-bar\');" href="/book/">\n                <span class="navitem-highlight">Book</span></a></li>\n              \n              \n              <li id="storyNav" class="hide"><a href="/story/" onclick="ga(\'send\', \'event\', \'story\', \'click\', \'nav\');">\n                <span class="navitem-highlight">Story</span></a></li>\n              \n              \n            </ul>\n            \n            <ul id="navbar-right" class="nav navbar-nav navbar-right sign-up">\n              <a class="btn btn-primary" href="/accounts/signup">Sign up</a>\n              <a class="btn btn-default" href="/accounts/login/">Sign in</a>\n            </ul>\n            \n          </div><!--/.navbar-collapse -->\n        </div>\n      </div>\n\n       \n  <div class="modal fade" id="schema" tabindex="-1" role="dialog">\n    <div class="modal-dialog">\n      <div class="modal-content">\n        <div class="modal-header">\n          <button type="button" class="close" data-dismiss="modal">\n            <span aria-hidden="true">\n              &times;\n            </span>\n            <span class="sr-only">\n              Close\n            </span>\n          </button>\n          <h4 class="modal-title">\n            SQL Schema\n          </h4>\n        </div>\n        <div class="modal-body">\n          <pre style="margin-bottom: 0px; max-height: 500px; overflow: scroll; white-space: nowrap;">\n            <code class="mysql" id="schema-code" style="white-space: nowrap;">\n              \n            </code>\n          </pre>\n        </div>\n      </div>\n    </div>\n  </div>\n\n\n  \n\n  <div class="container question-detail-container">\n    \n    <div class="question-title clearfix">\n      <div class="row">\n        \n        <div class="col-md-12">\n          <h3>\n            330. Patching Array\n          </h3>\n        </div>\n        \n      </div>\n    </div>\n    <div\n      id="tab-view-app"\n      data-questiontitleslug="patching-array"\n      data-solutionallowed\n      data-notebbcid="411"\n      data-forumurl="https://discuss.leetcode.com/category/411"\n      \n    >\n      <div class="placeholder-text large">\n        Loading Question ...\n      </div>\n    </div>\n    <!-- this server-side snippet will be captured and controled by a react component -->\n    \n\n<div\n  class="row tab-content hide"\n  id="descriptionContent"\n>\n  <div class="col-md-9 question-panel">\n\n    <!-- Question -->\n    <div class="question-content">\n\n      <!-- Action Buttons -->\n      <div class="action-btn-base">\n        \n        <section class="action action-btn-set">\n          \n          \n          <a href="https://discuss.leetcode.com/category/411"\n              target="_blank"\n              onclick="ga(\'send\', \'event\', \'discuss\', \'click\', \'patching-array\');"\n              class="icon-btn btn">\n            <i class="fa fa-commenting-o" aria-hidden="true"></i>Discuss\n          </a>\n          \n          \n          <button type="button"\n                  class="icon-btn btn"\n                  onclick="confirmations.confirm_see_solution(\n                    event,\n                    \'/articles/patching-array/\',\n                    false\n                    );">\n            <i class="fa fa-book" aria-hidden="true">\n            </i><span class="hidden-xs">Editorial </span>Solution\n          </button>\n          \n          \n          <a href="/problems/random-one-question/"\n              onclick="ga(\'send\', \'event\', \'pick-one-detail\', \'click\');"\n              class="icon-btn pull-right-sm btn">\n            <i class="fa fa-random" aria-hidden="true"></i>Pick One\n          </a>\n        </section>\n        <hr class="line dotted">\n        \n      </div>\n      <!-- @END Action Button-->\n      <div class="question-description">\n        <p><p>Given a sorted positive integer array <i>nums</i> and an integer <i>n</i>, add/patch elements to the array such that any number in range <code>[1, n]</code> inclusive can be formed by the sum of some elements in the array. Return the minimum number of patches required.\r\n</p>\r\n\r\n<p><strong>Example 1:</strong><br>\r\n<i>nums</i> = <code>[1, 3]</code>, <i>n</i> = <code>6</code><br>\r\nReturn <code>1</code>.</p>\r\n\r\n<p>Combinations of <i>nums</i> are <code>[1], [3], [1,3]</code>, which form possible sums of: <code>1, 3, 4</code>.<br>\r\nNow if we add/patch <code>2</code> to <i>nums</i>, the combinations are: <code>[1], [2], [3], [1,3], [2,3], [1,2,3]</code>.<br>\r\nPossible sums are <code>1, 2, 3, 4, 5, 6</code>, which now covers the range <code>[1, 6]</code>.<br>\r\nSo we only need <code>1</code> patch.</p>\r\n\r\n<p><strong>Example 2:</strong><br>\r\n<i>nums</i> = <code>[1, 5, 10]</code>, <i>n</i> = <code>20</code><br>\r\nReturn <code>2</code>.<br>\r\nThe two patches can be <code>[2, 4]</code>.</p>\r\n\r\n<p><strong>Example 3:</strong><br>\r\n<i>nums</i> = <code>[1, 2, 2]</code>, <i>n</i> = <code>5</code><br>\r\nReturn <code>0</code>.<br>\r\n\r\n<p><b>Credits:</b><br />Special thanks to <a href="https://leetcode.com/discuss/user/dietpepsi">@dietpepsi</a> for adding this problem and creating all test cases.</p></p>\n      </div>\n      <!-- Interview Feedback -->\n      \n      <div id="interviewed-div">\n        <hr class="line dotted interview-hr">\n        <div\n          class="close-survey btn btn-xs pull-right"\n          onclick=\'document.getElementById("interviewed-div").style.display = "none";\'\n        >\n          <i class="fa fa-times-circle" aria-hidden="true"></i>\n        </div>\n        <form id="interviewed-form" method="post" action="/interviewed/">\n          <input type=\'hidden\' name=\'csrfmiddlewaretoken\' value=\'ViqIMR5isNL31oMop5cykUM4vczWKKaKVpFAm9Nh8Ud1viLYqLSY0KYK8TrMFg2q\' />\n          <input type="hidden" name="question_id" value="330" />\n          <input type="hidden" name="feedback" value="Thanks for your feedback."/>\n          <input type="hidden" name="option" />\n          <input type="hidden" name="is_interviewed" value=false />\n          <input type="hidden" name="time_option"/>\n          <input type="hidden" name="company_id" value=0 />\n          <input type="hidden" name="interviewedstats_id" value=0 />\n        </form>\n        <div id=\'survey\'>\n          <div id=\'general_questions\'>\n            <span>Seen this question in a real interview before? &nbsp;</span>\n            <span class="text-warning chosen_option text-bold"></span>\n            <span id="yes-or-no-options">\n              <div value=true name="is_interviewed" id="yes" follow_up="#yes_questions" class=\'submit btn btn-default btn-xs\'>\n                Yes\n              </div>\n              <div value=false name="is_interviewed" id="no" class=\'submit btn btn-default btn-xs\'>\n                No\n              </div>\n            </span>\n          </div>\n          <div id="yes_questions" class="hide">\n            <span>When did you encounter this question? &nbsp;</span>\n            <span class="text-warning chosen_option text-bold"></span>\n            <span>\n              \n                <div value=0 follow_up="#company_questions" name="time_option" class="submit btn btn-default btn-xs">\n                  last week\n                </div>\n              \n                <div value=1 follow_up="#company_questions" name="time_option" class="submit btn btn-default btn-xs">\n                  last month\n                </div>\n              \n                <div value=2 follow_up="#company_questions" name="time_option" class="submit btn btn-default btn-xs">\n                  last 3 month\n                </div>\n              \n                <div value=3 follow_up="#company_questions" name="time_option" class="submit btn btn-default btn-xs">\n                  last 6 month\n                </div>\n              \n                <div value=4 follow_up="#company_questions" name="time_option" class="submit btn btn-default btn-xs">\n                  more than 6 months\n                </div>\n              \n                <div value=5 follow_up="#company_questions" name="time_option" class="submit btn btn-default btn-xs">\n                  other\n                </div>\n              \n            </span>\n          </div>\n\n          <div id="company_questions" class="hide">\n            <span>Which company? &nbsp;</span>\n            <span class="text-warning chosen_option text-bold"></span>\n            <span id="company_list">\n              \n                <div value="38" name="company_id" class=\'submit btn btn-default btn-xs\'>\n                  Adobe\n                </div>\n              \n                <div value="118" name="company_id" class=\'submit btn btn-default btn-xs\'>\n                  Aetion\n                </div>\n              \n                <div value="148" name="company_id" class=\'submit btn btn-default btn-xs\'>\n                  Affirm\n                </div>\n              \n                <div value="12" name="company_id" class=\'submit btn btn-default btn-xs\'>\n                  Airbnb\n                </div>\n              \n                <div value="51" name="company_id" class=\'submit btn btn-default btn-xs\'>\n                  Alation\n                </div>\n              \n                <div value="22" name="company_id" class=\'submit btn btn-default btn-xs\'>\n                  Alibaba\n                </div>\n              \n                <div value="1" name="company_id" class=\'submit btn btn-default btn-xs\'>\n                  Amazon\n                </div>\n              \n                <div value="106" name="company_id" class=\'submit btn btn-default btn-xs\'>\n                  AppDynamics\n                </div>\n              \n                <div value="2" name="company_id" class=\'submit btn btn-default btn-xs\'>\n                  Apple\n                </div>\n              \n                <div value="44" name="company_id" class=\'submit btn btn-default btn-xs\'>\n                  Arista\n                </div>\n              \n                <div value="20" name="company_id" class=\'submit btn btn-default btn-xs\'>\n                  Baidu\n                </div>\n              \n                <div value="170" name="company_id" class=\'submit btn btn-default btn-xs\'>\n                  Bank of America\n                </div>\n              \n                <div value="120" name="company_id" class=\'submit btn btn-default btn-xs\'>\n                  BlackRock\n                </div>\n              \n                <div value="71" name="company_id" class=\'submit btn btn-default btn-xs\'>\n                  Blend Labs\n                </div>\n              \n                <div value="58" name="company_id" class=\'submit btn btn-default btn-xs\'>\n                  Blizzard\n                </div>\n              \n                <div value="13" name="company_id" class=\'submit btn btn-default btn-xs\'>\n                  Bloomberg\n                </div>\n              \n                <div value="187" name="company_id" class=\'submit btn btn-default btn-xs\'>\n                  Booking\n                </div>\n              \n                <div value="52" name="company_id" class=\'submit btn btn-default btn-xs\'>\n                  Box\n                </div>\n              \n                <div value="30" name="company_id" class=\'submit btn btn-default btn-xs\'>\n                  Bungie\n                </div>\n              \n                <div value="140" name="company_id" class=\'submit btn btn-default btn-xs\'>\n                  Capital One\n                </div>\n              \n                <div value="78" name="company_id" class=\'submit btn btn-default btn-xs\'>\n                  CareerBuilder\n                </div>\n              \n                <div value="18" name="company_id" class=\'submit btn btn-default btn-xs\'>\n                  Cisco\n                </div>\n              \n                <div value="90" name="company_id" class=\'submit btn btn-default btn-xs\'>\n                  Citadel\n                </div>\n              \n                <div value="176" name="company_id" class=\'submit btn btn-default btn-xs\'>\n                  Coinbase\n                </div>\n              \n                <div value="91" name="company_id" class=\'submit btn btn-default btn-xs\'>\n                  Concur\n                </div>\n              \n                <div value="77" name="company_id" class=\'submit btn btn-default btn-xs\'>\n                  Conviva\n                </div>\n              \n                <div value="249" name="company_id" class=\'submit btn btn-default btn-xs\'>\n                  Coupang\n                </div>\n              \n                <div value="73" name="company_id" class=\'submit btn btn-default btn-xs\'>\n                  Coursera\n                </div>\n              \n                <div value="45" name="company_id" class=\'submit btn btn-default btn-xs\'>\n                  CreditEase\n                </div>\n              \n                <div value="92" name="company_id" class=\'submit btn btn-default btn-xs\'>\n                  CVTE\n                </div>\n              \n                <div value="167" name="company_id" class=\'submit btn btn-default btn-xs\'>\n                  Dell\n                </div>\n              \n                <div value="48" name="company_id" class=\'submit btn btn-default btn-xs\'>\n                  Deutsche Bank\n                </div>\n              \n                <div value="168" name="company_id" class=\'submit btn btn-default btn-xs\'>\n                  DoorDash\n                </div>\n              \n                <div value="24" name="company_id" class=\'submit btn btn-default btn-xs\'>\n                  Dropbox\n                </div>\n              \n                <div value="166" name="company_id" class=\'submit btn btn-default btn-xs\'>\n                  Duolingo\n                </div>\n              \n                <div value="80" name="company_id" class=\'submit btn btn-default btn-xs\'>\n                  EasyNet\n                </div>\n              \n                <div value="23" name="company_id" class=\'submit btn btn-default btn-xs\'>\n                  eBay\n                </div>\n              \n                <div value="19" name="company_id" class=\'submit btn btn-default btn-xs\'>\n                  Electronic Arts\n                </div>\n              \n                <div value="68" name="company_id" class=\'submit btn btn-default btn-xs\'>\n                  EMC\n                </div>\n              \n                <div value="39" name="company_id" class=\'submit btn btn-default btn-xs\'>\n                  Epic Systems\n                </div>\n              \n                <div value="95" name="company_id" class=\'submit btn btn-default btn-xs\'>\n                  Equinix\n                </div>\n              \n                <div value="82" name="company_id" class=\'submit btn btn-default btn-xs\'>\n                  Evernote\n                </div>\n              \n                <div value="27" name="company_id" class=\'submit btn btn-default btn-xs\'>\n                  Expedia\n                </div>\n              \n                <div value="3" name="company_id" class=\'submit btn btn-default btn-xs\'>\n                  Facebook\n                </div>\n              \n                <div value="99" name="company_id" class=\'submit btn btn-default btn-xs\'>\n                  FactSet\n                </div>\n              \n                <div value="134" name="company_id" class=\'submit btn btn-default btn-xs\'>\n                  Fitbit\n                </div>\n              \n                <div value="60" name="company_id" class=\'submit btn btn-default btn-xs\'>\n                  Flipkart\n                </div>\n              \n                <div value="32" name="company_id" class=\'submit btn btn-default btn-xs\'>\n                  Fortinet\n                </div>\n              \n                <div value="162" name="company_id" class=\'submit btn btn-default btn-xs\'>\n                  FourSquare\n                </div>\n              \n                <div value="70" name="company_id" class=\'submit btn btn-default btn-xs\'>\n                  FreeWheel\n                </div>\n              \n                <div value="87" name="company_id" class=\'submit btn btn-default btn-xs\'>\n                  GoDaddy\n                </div>\n              \n                <div value="35" name="company_id" class=\'submit btn btn-default btn-xs\'>\n                  Goldman Sachs\n                </div>\n              \n                <div value="4" name="company_id" class=\'submit btn btn-default btn-xs\'>\n                  Google\n                </div>\n              \n                <div value="34" name="company_id" class=\'submit btn btn-default btn-xs\'>\n                  GrabTaxi\n                </div>\n              \n                <div value="65" name="company_id" class=\'submit btn btn-default btn-xs\'>\n                  Groupon\n                </div>\n              \n                <div value="101" name="company_id" class=\'submit btn btn-default btn-xs\'>\n                  HBO\n                </div>\n              \n                <div value="64" name="company_id" class=\'submit btn btn-default btn-xs\'>\n                  Hedvig\n                </div>\n              \n                <div value="86" name="company_id" class=\'submit btn btn-default btn-xs\'>\n                  HomeAway\n                </div>\n              \n                <div value="141" name="company_id" class=\'submit btn btn-default btn-xs\'>\n                  HTC\n                </div>\n              \n                <div value="139" name="company_id" class=\'submit btn btn-default btn-xs\'>\n                  Huawei\n                </div>\n              \n                <div value="62" name="company_id" class=\'submit btn btn-default btn-xs\'>\n                  Hulu\n                </div>\n              \n                <div value="100" name="company_id" class=\'submit btn btn-default btn-xs\'>\n                  IBG\n                </div>\n              \n                <div value="104" name="company_id" class=\'submit btn btn-default btn-xs\'>\n                  IBM\n                </div>\n              \n                <div value="94" name="company_id" class=\'submit btn btn-default btn-xs\'>\n                  Indeed\n                </div>\n              \n                <div value="85" name="company_id" class=\'submit btn btn-default btn-xs\'>\n                  InnovatureLabs\n                </div>\n              \n                <div value="17" name="company_id" class=\'submit btn btn-default btn-xs\'>\n                  Intel\n                </div>\n              \n                <div value="88" name="company_id" class=\'submit btn btn-default btn-xs\'>\n                  IXL\n                </div>\n              \n                <div value="28" name="company_id" class=\'submit btn btn-default btn-xs\'>\n                  Jane Street\n                </div>\n              \n                <div value="36" name="company_id" class=\'submit btn btn-default btn-xs\'>\n                  JPMorgan\n                </div>\n              \n                <div value="37" name="company_id" class=\'submit btn btn-default btn-xs\'>\n                  Jump Trading\n                </div>\n              \n                <div value="59" name="company_id" class=\'submit btn btn-default btn-xs\'>\n                  Lending Club\n                </div>\n              \n                <div value="5" name="company_id" class=\'submit btn btn-default btn-xs\'>\n                  LinkedIn\n                </div>\n              \n                <div value="54" name="company_id" class=\'submit btn btn-default btn-xs\'>\n                  LiveRamp\n                </div>\n              \n                <div value="84" name="company_id" class=\'submit btn btn-default btn-xs\'>\n                  Loovee\n                </div>\n              \n                <div value="40" name="company_id" class=\'submit btn btn-default btn-xs\'>\n                  Marvel\n                </div>\n              \n                <div value="42" name="company_id" class=\'submit btn btn-default btn-xs\'>\n                  Matlab\n                </div>\n              \n                <div value="49" name="company_id" class=\'submit btn btn-default btn-xs\'>\n                  McKesson\n                </div>\n              \n                <div value="6" name="company_id" class=\'submit btn btn-default btn-xs\'>\n                  Microsoft\n                </div>\n              \n                <div value="61" name="company_id" class=\'submit btn btn-default btn-xs\'>\n                  Morgan Stanley\n                </div>\n              \n                <div value="113" name="company_id" class=\'submit btn btn-default btn-xs\'>\n                  NetEase\n                </div>\n              \n                <div value="135" name="company_id" class=\'submit btn btn-default btn-xs\'>\n                  Nintendo\n                </div>\n              \n                <div value="102" name="company_id" class=\'submit btn btn-default btn-xs\'>\n                  Nutanix\n                </div>\n              \n                <div value="21" name="company_id" class=\'submit btn btn-default btn-xs\'>\n                  Nvidia\n                </div>\n              \n                <div value="25" name="company_id" class=\'submit btn btn-default btn-xs\'>\n                  Oracle\n                </div>\n              \n                <div value="67" name="company_id" class=\'submit btn btn-default btn-xs\'>\n                  Orbitz\n                </div>\n              \n                <div value="53" name="company_id" class=\'submit btn btn-default btn-xs\'>\n                  Palantir\n                </div>\n              \n                <div value="72" name="company_id" class=\'submit btn btn-default btn-xs\'>\n                  Paypal\n                </div>\n              \n                <div value="9" name="company_id" class=\'submit btn btn-default btn-xs\'>\n                  Pinterest\n                </div>\n              \n                <div value="16" name="company_id" class=\'submit btn btn-default btn-xs\'>\n                  Pocket Gems\n                </div>\n              \n                <div value="98" name="company_id" class=\'submit btn btn-default btn-xs\'>\n                  Point72\n                </div>\n              \n                <div value="136" name="company_id" class=\'submit btn btn-default btn-xs\'>\n                  Qualcomm\n                </div>\n              \n                <div value="46" name="company_id" class=\'submit btn btn-default btn-xs\'>\n                  Qualtrics\n                </div>\n              \n                <div value="75" name="company_id" class=\'submit btn btn-default btn-xs\'>\n                  Qumulo\n                </div>\n              \n                <div value="76" name="company_id" class=\'submit btn btn-default btn-xs\'>\n                  Quora\n                </div>\n              \n                <div value="33" name="company_id" class=\'submit btn btn-default btn-xs\'>\n                  Rackspace\n                </div>\n              \n                <div value="121" name="company_id" class=\'submit btn btn-default btn-xs\'>\n                  Redfin\n                </div>\n              \n                <div value="107" name="company_id" class=\'submit btn btn-default btn-xs\'>\n                  Rubrik\n                </div>\n              \n                <div value="69" name="company_id" class=\'submit btn btn-default btn-xs\'>\n                  Salesforce\n                </div>\n              \n                <div value="131" name="company_id" class=\'submit btn btn-default btn-xs\'>\n                  Samsung\n                </div>\n              \n                <div value="126" name="company_id" class=\'submit btn btn-default btn-xs\'>\n                  SAP\n                </div>\n              \n                <div value="165" name="company_id" class=\'submit btn btn-default btn-xs\'>\n                  ServiceNow\n                </div>\n              \n                <div value="41" name="company_id" class=\'submit btn btn-default btn-xs\'>\n                  Sina\n                </div>\n              \n                <div value="8" name="company_id" class=\'submit btn btn-default btn-xs\'>\n                  Snapchat\n                </div>\n              \n                <div value="83" name="company_id" class=\'submit btn btn-default btn-xs\'>\n                  SoftwareOne\n                </div>\n              \n                <div value="81" name="company_id" class=\'submit btn btn-default btn-xs\'>\n                  Sony\n                </div>\n              \n                <div value="115" name="company_id" class=\'submit btn btn-default btn-xs\'>\n                  SoundHound\n                </div>\n              \n                <div value="63" name="company_id" class=\'submit btn btn-default btn-xs\'>\n                  Square\n                </div>\n              \n                <div value="50" name="company_id" class=\'submit btn btn-default btn-xs\'>\n                  Sumologic\n                </div>\n              \n                <div value="163" name="company_id" class=\'submit btn btn-default btn-xs\'>\n                  SurveyMonkey\n                </div>\n              \n                <div value="55" name="company_id" class=\'submit btn btn-default btn-xs\'>\n                  Symantec\n                </div>\n              \n                <div value="109" name="company_id" class=\'submit btn btn-default btn-xs\'>\n                  Tableau\n                </div>\n              \n                <div value="26" name="company_id" class=\'submit btn btn-default btn-xs\'>\n                  Tencent\n                </div>\n              \n                <div value="143" name="company_id" class=\'submit btn btn-default btn-xs\'>\n                  Tesorio\n                </div>\n              \n                <div value="66" name="company_id" class=\'submit btn btn-default btn-xs\'>\n                  TinyCo\n                </div>\n              \n                <div value="31" name="company_id" class=\'submit btn btn-default btn-xs\'>\n                  Tradeshift\n                </div>\n              \n                <div value="56" name="company_id" class=\'submit btn btn-default btn-xs\'>\n                  TripAdvisor\n                </div>\n              \n                <div value="97" name="company_id" class=\'submit btn btn-default btn-xs\'>\n                  Twilio\n                </div>\n              \n                <div value="7" name="company_id" class=\'submit btn btn-default btn-xs\'>\n                  Twitter\n                </div>\n              \n                <div value="47" name="company_id" class=\'submit btn btn-default btn-xs\'>\n                  Two Sigma\n                </div>\n              \n                <div value="11" name="company_id" class=\'submit btn btn-default btn-xs\'>\n                  Uber\n                </div>\n              \n                <div value="159" name="company_id" class=\'submit btn btn-default btn-xs\'>\n                  Veritas\n                </div>\n              \n                <div value="146" name="company_id" class=\'submit btn btn-default btn-xs\'>\n                  Visa\n                </div>\n              \n                <div value="57" name="company_id" class=\'submit btn btn-default btn-xs\'>\n                  VMware\n                </div>\n              \n                <div value="74" name="company_id" class=\'submit btn btn-default btn-xs\'>\n                  Walmart\n                </div>\n              \n                <div value="103" name="company_id" class=\'submit btn btn-default btn-xs\'>\n                  Wealthfront\n                </div>\n              \n                <div value="132" name="company_id" class=\'submit btn btn-default btn-xs\'>\n                  Whitepages\n                </div>\n              \n                <div value="152" name="company_id" class=\'submit btn btn-default btn-xs\'>\n                  Works Applications\n                </div>\n              \n                <div value="14" name="company_id" class=\'submit btn btn-default btn-xs\'>\n                  Yahoo\n                </div>\n              \n                <div value="43" name="company_id" class=\'submit btn btn-default btn-xs\'>\n                  Yandex\n                </div>\n              \n                <div value="15" name="company_id" class=\'submit btn btn-default btn-xs\'>\n                  Yelp\n                </div>\n              \n                <div value="89" name="company_id" class=\'submit btn btn-default btn-xs\'>\n                  Zappos\n                </div>\n              \n                <div value="10" name="company_id" class=\'submit btn btn-default btn-xs\'>\n                  Zenefits\n                </div>\n              \n                <div value="142" name="company_id" class=\'submit btn btn-default btn-xs\'>\n                  Zillow\n                </div>\n              \n                <div value="29" name="company_id" class=\'submit btn btn-default btn-xs\'>\n                  Zynga\n                </div>\n              \n              <a><span id="show_add_company" class="fa fa-plus text-warning" title="Add a new company"></span></a>\n              <span id="add_company_panel">\n                <input id="new_company" type="text" />\n                <button id="add_company" class="btn btn-success btn-xs">Add Company</button>\n              </span>\n            </span>\n          </div>\n        </div>\n        <div id=\'interviewed-state\'>\n        </div>\n      </div>\n      \n      <!-- @END Interview Feedback -->\n    </div>\n    <!-- @END Question -->\n\n  </div>\n  <!-- @END Question Panel -->\n\n\n  <!-- Side bar -->\n  <script>\n    $(document).ready(function(){\n      $("#mobile-side-bar").html($("#desktop-side-bar").html());\n    })\n  </script>\n  <div id="desktop-side-bar">\n    <div class="col-md-3 side-bar">\n      <ul class="side-bar-list">\n        <hr class="line solid visible-xs visible-sm">\n        <li class="list-item"><span>Difficulty:</span><span class="pull-right difficulty-label round label label-Hard">Hard</span></li>\n        <li class="list-item"><span>Total Accepted:</span><span class="pull-right">21.7K</span></li>\n        <li class="list-item"><span>Total Submissions:</span><span class="pull-right">68K</span></li>\n        \n          <li class="list-item">\n            <span>Contributor:</span>\n            <span class="pull-right">\n              LeetCode\n            </span>\n          </li>\n        \n\n        <li class="list-item">\n          <!-- Sharing -->\n          <div id=\'question-detail-share-buttons\'></div>\n          <!-- @END Sharing -->\n        </li>\n\n\n        <li class="list-item-tags">\n          <!-- Question Tags -->\n          <div class="tags">\n            \n              <div>\n                <p>\n                  <a class="text-warning text-bold" href="/subscribe/">Subscribe</a>\n                  to see which companies asked this question.\n                </p>\n              </div>\n            \n\n            <script>\n              function showHideTags(groupName) {\n                tags = document.getElementById(`tags-${groupName}`);\n                showBtn = $(`#show-tags-btn-${groupName}`);\n                if(tags.className == "display") {\n                  tags.className = "hideout";\n                  showBtn.find(\'i.fa\').attr("class", \'fa fa-caret-down\');\n                } else {\n                  tags.className = "display";\n                  showBtn.find(\'i.fa\').attr("class", \'fa fa-caret-up\');\n                }\n              }\n            </script>\n\n            <span id="all-tags">\n            \n\n            \n              <div class="tag-section">\n                <a\n                  class="text-500 showBtn"\n                  onclick=\'showHideTags("topics")\'\n                  href="javascript:void(0)"\n                  id="show-tags-btn-topics"\n                >\n                  Related Topics <i class="fa fa-caret-down" aria-hidden="true"></i></a>\n                <div id="tags-topics" class="hideout">\n                  \n                    <a\n                      class="btn btn-xs btn-default btn-round text-sm"\n                      href="/tag/greedy/"\n                    >Greedy</a>\n                  \n                  <br>\n                </div>\n              </div>\n            \n\n            \n          </span>\n          </div>\n          <!-- @END Question Tags -->\n        </li>\n      </ul>\n    </div>\n  </div>\n</div>\n\n  </div>\n  <div class="editor-container">\n    <div id="submission-form-app"></div>\n  </div>\n  <div class="mobile-status visible-xs visible-sm container">\n    <div id="mobile-side-bar"></div>\n  </div>\n\n    </div>\n\n    \n    <footer class="site-footer">\n      <div class="container">\n        <hr>\n        <p class="text-center">\n          <a href="/faq/">Frequently Asked Questions</a> |\n          <a href="/tos/">Terms of Service</a>\n        </p>\n        <p class="text-center">\n          <a href="//www.iubenda.com/privacy-policy/499831" class="iubenda-white iubenda-embed" title="Privacy Policy">Privacy Policy</a>\n        </p>\n        <p class="text-center">Copyright \xc2\xa9 2017 LeetCode</p>\n      </div>\n    </footer>\n    \n\n    <a href="mailto:admin@leetcode.com?subject=Feedback" id="support-link" target="_blank">\n      <i class="fa fa-envelope-o" aria-hidden="true"></i>&nbsp; <span>Send Feedback</span></a>\n\n    <script src="/static/bootstrap/dist/js/bootstrap.min.js"></script>\n    <script src="/static/bootstrap-table/dist/bootstrap-table.min.js"></script>\n    <script type="text/javascript" src="/static/CACHE/js/bf382ccd9617.js"></script>\n    <script type="text/javascript" src="/static/webpack_bundles/common-vendor.a4682fed.js" ></script>\n    <script type="text/javascript" src="/static/webpack_bundles/common/js/base.entry.43f2f2cd.js" ></script>\n\n     \n<script>\n  var pageData = {\n    questionId: \'330\',\n    questionTitleSlug: \'patching-array\',\n    questionTitle: \'Patching Array\',\n    categoryTitle: \'Algorithms\',\n    payment: true,\n    loginUrl: \'/accounts/login/?next=/problems/patching-array/\',\n    unpaidUrl: \'/unpaid/\',\n    isSignedIn:  false,\n\n    sessionId: \'0\',\n    reverseUrl: {\n      latest_submission: \'/submissions/latest/\',\n      account_login: \'/accounts/login/\',\n      maintenance: \'/maintenance/\',\n      profile: \'/profile/\'\n    },\n    enableRunCode:  true ,\n    enableSubmit: true ,\n    submitUrl: \'/problems/patching-array/submit/\',\n    interpretUrl: \'/problems/patching-array/interpret_solution/\',\n    judgeType: \'large\',\n    nextChallengePairs: JSON.parse(\'null\'),\n    codeDefinition: [{\'value\': \'cpp\', \'text\': \'C++\', \'defaultCode\': \'class Solution {\\u000D\\u000Apublic:\\u000D\\u000A    int minPatches(vector\\u003Cint\\u003E\\u0026 nums, int n) {\\u000D\\u000A        \\u000D\\u000A    }\\u000D\\u000A}\\u003B\' },{\'value\': \'java\', \'text\': \'Java\', \'defaultCode\': \'public class Solution {\\u000D\\u000A    public int minPatches(int[] nums, int n) {\\u000D\\u000A        \\u000D\\u000A    }\\u000D\\u000A}\' },{\'value\': \'python\', \'text\': \'Python\', \'defaultCode\': \'class Solution(object):\\u000D\\u000A    def minPatches(self, nums, n):\\u000D\\u000A        \\u0022\\u0022\\u0022\\u000D\\u000A        :type nums: List[int]\\u000D\\u000A        :type n: int\\u000D\\u000A        :rtype: int\\u000D\\u000A        \\u0022\\u0022\\u0022\\u000D\\u000A        \' },{\'value\': \'c\', \'text\': \'C\', \'defaultCode\': \'int minPatches(int* nums, int numsSize, int n) {\\u000D\\u000A    \\u000D\\u000A}\' },{\'value\': \'csharp\', \'text\': \'C#\', \'defaultCode\': \'public class Solution {\\u000D\\u000A    public int MinPatches(int[] nums, int n) {\\u000D\\u000A        \\u000D\\u000A    }\\u000D\\u000A}\' },{\'value\': \'javascript\', \'text\': \'JavaScript\', \'defaultCode\': \'/**\\u000D\\u000A * @param {number[]} nums\\u000D\\u000A * @param {number} n\\u000D\\u000A * @return {number}\\u000D\\u000A */\\u000D\\u000Avar minPatches \\u003D function(nums, n) {\\u000D\\u000A    \\u000D\\u000A}\\u003B\' },{\'value\': \'ruby\', \'text\': \'Ruby\', \'defaultCode\': \'# @param {Integer[]} nums\\u000D\\u000A# @param {Integer} n\\u000D\\u000A# @return {Integer}\\u000D\\u000Adef min_patches(nums, n)\\u000D\\u000A    \\u000D\\u000Aend\' },{\'value\': \'swift\', \'text\': \'Swift\', \'defaultCode\': \'class Solution {\\u000A    func minPatches(_ nums: [Int], _ n: Int) \\u002D\\u003E Int {\\u000A        \\u000A    }\\u000A}\' },{\'value\': \'golang\', \'text\': \'Go\', \'defaultCode\': \'func minPatches(nums []int, n int) int {\\u000A    \\u000A}\' },{\'value\': \'scala\', \'text\': \'Scala\', \'defaultCode\': \'object Solution {\\u000A    def minPatches(nums: Array[Int], n: Int): Int \\u003D {\\u000A        \\u000A    }\\u000A}\' },],\n    enableTestMode: false ,\n    metaData: JSON.parse(\'{\\u000D\\u000A  \\u0022name\\u0022: \\u0022minPatches\\u0022,\\u000D\\u000A  \\u0022params\\u0022: [\\u000D\\u000A    {\\u000D\\u000A      \\u0022name\\u0022: \\u0022nums\\u0022,\\u000D\\u000A      \\u0022type\\u0022: \\u0022integer[]\\u0022\\u000D\\u000A    },\\u000D\\u000A    {\\u000D\\u000A      \\u0022name\\u0022: \\u0022n\\u0022,\\u000D\\u000A      \\u0022type\\u0022: \\u0022integer\\u0022\\u000D\\u000A    }\\u000D\\u000A  ],\\u000D\\u000A  \\u0022return\\u0022: {\\u000D\\u000A    \\u0022type\\u0022: \\u0022integer\\u0022\\u000D\\u000A  }\\u000D\\u000A}\' || \'{}\'),\n    authenticated: false ,\n    sampleTestCase: \'[1,3]\\u000A6\',\n    judgerAvailable:  true ,\n    emailVerified: false ,\n    \n      articleUrl: \'/articles/patching-array/\',\n    \n    mobile: false ,\n    likes: 12,\n    dislikes: 4,\n    isLiked:  null ,\n  };\n</script>\n<script type="text/javascript" src="/static/CACHE/js/39531c5a2195.js"></script>\n\n<!-- Go to www.addthis.com/dashboard to customize your tools -->\n\n\n\n    <script>\n      (function($, w, d){\n        var loader = function () {\n          var s = d.createElement("script"),\n              tag = d.getElementsByTagName("script")[0];\n          s.src = "//cdn.iubenda.com/iubenda.js";\n          tag.parentNode.insertBefore(s,tag);\n          s.onload = setFooterStyles;\n        };\n        if (w.addEventListener) {\n          w.addEventListener("load", loader, false);\n        } else if (w.attachEvent) {\n          w.attachEvent("onload", loader);\n        } else { w.onload = loader; }\n\n        $(function() {\n          $(\'#navbar-right img\').addClass(\'img-rounded\');\n          setFooterStyles();\n        });\n\n        function setFooterStyles() {\n          var $footer = $(\'.site-footer\'),\n              height = $footer.outerHeight();\n          $footer.css(\'margin-top\', -height);\n          $(\'.content-wrapper\').css(\'padding-bottom\', height);\n        }\n      }(jQuery, window, document));\n      try {\n        ace.config.set("basePath", "/static/ace-builds/src-noconflict/")\n      } catch(err) {}\n    </script>\n  </body>\n</html>\n'
p206
sb.