ccopy_reg
_reconstructor
p0
(cpost
Post
p1
c__builtin__
object
p2
Ntp3
Rp4
(dp5
S'post_file'
p6
S'/Users/anupamjain/code/gitRepo/GitToPost/posts/Java/SpecificLevelOrderTraversal'
p7
sS'files_covered'
p8
c__builtin__
set
p9
((lp10
S'/Users/anupamjain/code/gitRepo/Questions/Algo/Java/SpecificLevelOrderTraversal.java'
p11
atp12
Rp13
sS'title'
p14
VPerfect Binary Tree Specific Level Order Traversal
p15
sS'file_name'
p16
g11
sS'link'
p17
S'http://www.geeksforgeeks.org/perfect-binary-tree-specific-level-order-traversal/'
p18
sS'host_name'
p19
S'www.geeksforgeeks.org'
p20
sS'problem_text'
p21
g0
(cbs4.element
Tag
p22
g2
Ntp23
Rp24
(dp25
S'can_be_empty_element'
p26
I00
sS'previous_element'
p27
NsS'next_sibling'
p28
NsS'name'
p29
S'p'
p30
sS'parent'
p31
NsS'namespace'
p32
NsS'prefix'
p33
NsS'previous_sibling'
p34
NsS'attrs'
p35
(dp36
sS'next_element'
p37
g0
(g22
g2
Ntp38
Rp39
(dp40
g26
I00
sg27
g24
sg28
g0
(g22
g2
Ntp41
Rp42
(dp43
g26
I00
sg27
g0
(g22
g2
Ntp44
Rp45
(dp46
g26
I00
sg27
g0
(cbs4.element
NavigableString
p47
c__builtin__
unicode
p48
V\u000a(click on image to get a clear view)
p49
tp50
Rp51
(dp52
g34
g0
(g22
g2
Ntp53
Rp54
(dp55
g26
I01
sg27
g0
(g47
g48
V like below:
p56
tp57
Rp58
(dp59
g34
g0
(g22
g2
Ntp60
Rp61
(dp62
g26
I00
sg27
g0
(g47
g48
VGiven a 
p63
tp64
Rp65
(dp66
g34
Nsg27
g39
sg28
g61
sg37
g61
sg31
g39
sbsg28
g58
sg29
Va
p67
sg31
g39
sg32
Nsg33
Nsg34
g65
sg35
(dp68
Vhref
p69
Vhttp://xlinux.nist.gov/dads//HTML/perfectBinaryTree.html
p70
sVtarget
p71
V_blank
p72
sVtitle
p73
Vperfect binary tree
p74
ssg37
g0
(g47
g48
VPerfect Binary Tree
p75
tp76
Rp77
(dp78
g34
Nsg27
g61
sg28
Nsg37
g58
sg31
g61
sbsS'parser_class'
p79
cbs4
BeautifulSoup
p80
sS'hidden'
p81
I00
sS'contents'
p82
(lp83
g77
asbsg27
g77
sg28
g54
sg37
g54
sg31
g39
sbsg28
g51
sg29
Vbr
p84
sg31
g39
sg32
Nsg33
Nsg34
g58
sg35
(dp85
sg37
g51
sg79
g80
sg81
I00
sg82
(lp86
sbsg27
g54
sg28
g45
sg37
g45
sg31
g39
sbsg28
Nsg29
Vspan
p87
sg31
g39
sg32
Nsg33
Nsg34
g51
sg35
(dp88
Vid
p89
Vmore-132437
p90
ssg37
g42
sg79
g80
sg81
I00
sg82
(lp91
sbsg28
g0
(g22
g2
Ntp92
Rp93
(dp94
g26
I00
sg27
g0
(g22
g2
Ntp95
Rp96
(dp97
g26
I01
sg27
g0
(g22
g2
Ntp98
Rp99
(dp100
g26
I00
sg27
g42
sg28
Nsg29
g67
sg31
g42
sg32
Nsg33
Nsg34
Nsg35
(dp101
Vhref
p102
Vhttp://www.geeksforgeeks.org/wp-content/uploads/image4.png
p103
ssg37
g96
sg79
g80
sg81
I00
sg82
(lp104
g96
asbsg28
Nsg29
Vimg
p105
sg31
g99
sg32
Nsg33
Nsg34
Nsg35
(dp106
Vsrc
p107
Vhttp://www.geeksforgeeks.org/wp-content/uploads/image4.png
p108
sVsizes
p109
V(max-width: 429px) 100vw, 429px
p110
sVheight
p111
V254
p112
sVwidth
p113
V429
p114
sValt
p115
Vimage(4)
p116
sVsrcset
p117
Vhttp://www.geeksforgeeks.org/wp-content/uploads/image4.png 429w, http://www.geeksforgeeks.org/wp-content/uploads/image4-300x178.png 300w
p118
sVclass
p119
(lp120
Valigncenter
p121
aVsize-full
p122
aVwp-image-137579
p123
assg37
g93
sg79
g80
sg81
I00
sg82
(lp124
sbsg28
g0
(g22
g2
Ntp125
Rp126
(dp127
g26
I00
sg27
g0
(g47
g48
VPrint the level order of nodes in following specific manner:
p128
tp129
Rp130
(dp131
g34
Nsg27
g93
sg28
Nsg37
g126
sg31
g93
sbsg28
g0
(g22
g2
Ntp132
Rp133
(dp134
g26
I00
sg27
g0
(g47
g48
V16 31 17 30 18 29 19 28 20 27 21 26  22 25 23 24
p135
tp136
Rp137
(dp138
g34
Nsg27
g0
(g22
g2
Ntp139
Rp140
(dp141
g26
I00
sg27
g0
(g47
g48
V 
p142
tp143
Rp144
(dp145
g34
g0
(g22
g2
Ntp146
Rp147
(dp148
g26
I00
sg27
g0
(g47
g48
g142
tp149
Rp150
(dp151
g34
g0
(g22
g2
Ntp152
Rp153
(dp154
g26
I00
sg27
g0
(g47
g48
g142
tp155
Rp156
(dp157
g34
g0
(g22
g2
Ntp158
Rp159
(dp160
g26
I00
sg27
g0
(g47
g48
g142
tp161
Rp162
(dp163
g34
g0
(g22
g2
Ntp164
Rp165
(dp166
g26
I00
sg27
g0
(g47
g48
g142
tp167
Rp168
(dp169
g34
Nsg27
g0
(g22
g2
Ntp170
Rp171
(dp172
g26
I00
sg27
g0
(g47
g48
g142
tp173
Rp174
(dp175
g34
Nsg27
g126
sg28
g171
sg37
g171
sg31
g126
sbsg28
Nsg29
Vfont
p176
sg31
g126
sg32
Nsg33
Nsg34
g174
sg35
(dp177
Vsize
p178
V1
p179
ssg37
g168
sg79
g80
sg81
I00
sg82
(lp180
g168
ag165
ag162
ag159
ag156
ag153
ag150
ag147
ag144
ag140
asbsg28
g165
sg37
g165
sg31
g171
sbsg28
g162
sg29
Vspan
p181
sg31
g171
sg32
Nsg33
Nsg34
g168
sg35
(dp182
Vstyle
p183
Vcolor: blue;
p184
ssg37
g0
(g47
g48
g179
tp185
Rp186
(dp187
g34
Nsg27
g165
sg28
Nsg37
g162
sg31
g165
sbsg79
g80
sg81
I00
sg82
(lp188
g186
asbsg27
g186
sg28
g159
sg37
g159
sg31
g171
sbsg28
g156
sg29
Vspan
p189
sg31
g171
sg32
Nsg33
Nsg34
g162
sg35
(dp190
Vstyle
p191
Vcolor: red;
p192
ssg37
g0
(g47
g48
V2 3
p193
tp194
Rp195
(dp196
g34
Nsg27
g159
sg28
Nsg37
g156
sg31
g159
sbsg79
g80
sg81
I00
sg82
(lp197
g195
asbsg27
g195
sg28
g153
sg37
g153
sg31
g171
sbsg28
g150
sg29
Vspan
p198
sg31
g171
sg32
Nsg33
Nsg34
g156
sg35
(dp199
Vstyle
p200
Vcolor: blue;
p201
ssg37
g0
(g47
g48
V4 7 5 6
p202
tp203
Rp204
(dp205
g34
Nsg27
g153
sg28
Nsg37
g150
sg31
g153
sbsg79
g80
sg81
I00
sg82
(lp206
g204
asbsg27
g204
sg28
g147
sg37
g147
sg31
g171
sbsg28
g144
sg29
Vspan
p207
sg31
g171
sg32
Nsg33
Nsg34
g150
sg35
(dp208
Vstyle
p209
Vcolor: red;
p210
ssg37
g0
(g47
g48
V8 15 9 14 10 13 11 12
p211
tp212
Rp213
(dp214
g34
Nsg27
g147
sg28
Nsg37
g144
sg31
g147
sbsg79
g80
sg81
I00
sg82
(lp215
g213
asbsg27
g213
sg28
g140
sg37
g140
sg31
g171
sbsg28
Nsg29
Vspan
p216
sg31
g171
sg32
Nsg33
Nsg34
g144
sg35
(dp217
Vstyle
p218
Vcolor: blue;
p219
ssg37
g137
sg79
g80
sg81
I00
sg82
(lp220
g137
asbsg28
Nsg37
g133
sg31
g140
sbsg28
Nsg29
Vp
p221
sg31
g24
sg32
Nsg33
Nsg34
g126
sg35
(dp222
sg37
g0
(g47
g48
Vi.e. print nodes in level order but nodes should be from left and right side alternatively. Here 1
p223
tp224
Rp225
(dp226
g34
Nsg27
g133
sg28
g0
(g22
g2
Ntp227
Rp228
(dp229
g26
I00
sg27
g225
sg28
g0
(g47
g48
V and 2
p230
tp231
Rp232
(dp233
g34
g228
sg27
g0
(g47
g48
Vst
p234
tp235
Rp236
(dp237
g34
Nsg27
g228
sg28
Nsg37
g232
sg31
g228
sbsg28
g0
(g22
g2
Ntp238
Rp239
(dp240
g26
I00
sg27
g232
sg28
g0
(g47
g48
V levels are trivial.
p241
tp242
Rp243
(dp244
g34
g239
sg27
g0
(g47
g48
Vnd
p245
tp246
Rp247
(dp248
g34
Nsg27
g239
sg28
Nsg37
g243
sg31
g239
sbsg28
g0
(g22
g2
Ntp249
Rp250
(dp251
g26
I01
sg27
g243
sg28
g0
(g47
g48
V\u000aWhile 3
p252
tp253
Rp254
(dp255
g34
g250
sg27
g250
sg28
g0
(g22
g2
Ntp256
Rp257
(dp258
g26
I00
sg27
g254
sg28
g0
(g47
g48
V level: 4(left), 7(right), 5(left), 6(right) are printed.
p259
tp260
Rp261
(dp262
g34
g257
sg27
g0
(g47
g48
Vrd
p263
tp264
Rp265
(dp266
g34
Nsg27
g257
sg28
Nsg37
g261
sg31
g257
sbsg28
g0
(g22
g2
Ntp267
Rp268
(dp269
g26
I01
sg27
g261
sg28
g0
(g47
g48
V\u000aWhile 4
p270
tp271
Rp272
(dp273
g34
g268
sg27
g268
sg28
g0
(g22
g2
Ntp274
Rp275
(dp276
g26
I00
sg27
g272
sg28
g0
(g47
g48
V level: 8(left), 15(right), 9(left), 14(right), .. are printed.
p277
tp278
Rp279
(dp280
g34
g275
sg27
g0
(g47
g48
Vth
p281
tp282
Rp283
(dp284
g34
Nsg27
g275
sg28
Nsg37
g279
sg31
g275
sbsg28
g0
(g22
g2
Ntp285
Rp286
(dp287
g26
I01
sg27
g279
sg28
g0
(g47
g48
V\u000aWhile 5
p288
tp289
Rp290
(dp291
g34
g286
sg27
g286
sg28
g0
(g22
g2
Ntp292
Rp293
(dp294
g26
I00
sg27
g290
sg28
g0
(g47
g48
V level: 16(left), 31(right), 17(left), 30(right), .. are printed.
p295
tp296
Rp297
(dp298
g34
g293
sg27
g0
(g47
g48
Vth
p299
tp300
Rp301
(dp302
g34
Nsg27
g293
sg28
Nsg37
g297
sg31
g293
sbsg28
Nsg37
Nsg31
g133
sbsg29
Vsup
p303
sg31
g133
sg32
Nsg33
Nsg34
g290
sg35
(dp304
sg37
g301
sg79
g80
sg81
I00
sg82
(lp305
g301
asbsg37
g293
sg31
g133
sbsg29
Vbr
p306
sg31
g133
sg32
Nsg33
Nsg34
g279
sg35
(dp307
sg37
g290
sg79
g80
sg81
I00
sg82
(lp308
sbsg37
g286
sg31
g133
sbsg29
Vsup
p309
sg31
g133
sg32
Nsg33
Nsg34
g272
sg35
(dp310
sg37
g283
sg79
g80
sg81
I00
sg82
(lp311
g283
asbsg37
g275
sg31
g133
sbsg29
Vbr
p312
sg31
g133
sg32
Nsg33
Nsg34
g261
sg35
(dp313
sg37
g272
sg79
g80
sg81
I00
sg82
(lp314
sbsg37
g268
sg31
g133
sbsg29
Vsup
p315
sg31
g133
sg32
Nsg33
Nsg34
g254
sg35
(dp316
sg37
g265
sg79
g80
sg81
I00
sg82
(lp317
g265
asbsg37
g257
sg31
g133
sbsg29
Vbr
p318
sg31
g133
sg32
Nsg33
Nsg34
g243
sg35
(dp319
sg37
g254
sg79
g80
sg81
I00
sg82
(lp320
sbsg37
g250
sg31
g133
sbsg29
Vsup
p321
sg31
g133
sg32
Nsg33
Nsg34
g232
sg35
(dp322
sg37
g247
sg79
g80
sg81
I00
sg82
(lp323
g247
asbsg37
g239
sg31
g133
sbsg29
Vsup
p324
sg31
g133
sg32
Nsg33
Nsg34
g225
sg35
(dp325
sg37
g236
sg79
g80
sg81
I00
sg82
(lp326
g236
asbsg37
g228
sg31
g133
sbsg79
g80
sg81
I00
sg82
(lp327
g225
ag228
ag232
ag239
ag243
ag250
ag254
ag257
ag261
ag268
ag272
ag275
ag279
ag286
ag290
ag293
ag297
asbsg29
Vpre
p328
sg31
g24
sg32
Nsg33
Nsg34
g93
sg35
(dp329
sg37
g174
sg79
g80
sg81
I00
sg82
(lp330
g174
ag171
asbsg29
g221
sg31
g24
sg32
Nsg33
Nsg34
g42
sg35
(dp331
sg37
g130
sg79
g80
sg81
I00
sg82
(lp332
g130
asbsg29
g221
sg31
g24
sg32
Nsg33
Nsg34
g39
sg35
(dp333
sg37
g99
sg79
g80
sg81
I00
sg82
(lp334
g99
asbsg29
g221
sg31
g24
sg32
Nsg33
Nsg34
Nsg35
(dp335
sg37
g65
sg79
g80
sg81
I00
sg82
(lp336
g65
ag61
ag58
ag54
ag51
ag45
asbsg79
Nsg81
I00
sg82
(lp337
g39
ag42
ag93
ag126
ag133
asbsS'raw_page'
p338
S'<!DOCTYPE html>\r\n<!--[if IE 7]>\r\n<html class="ie ie7" lang="en-US" prefix="og: http://ogp.me/ns#">\r\n<![endif]-->\r\n<!--[if IE 8]>\r\n<html class="ie ie8" lang="en-US" prefix="og: http://ogp.me/ns#">\r\n<![endif]-->\r\n<!--[if !(IE 7) | !(IE 8)  ]><!-->\r\n<html lang="en-US" prefix="og: http://ogp.me/ns#">\r\n<!--<![endif]-->\r\n<head>\r\n<meta charset="UTF-8" />\r\n<meta name="viewport" content="width=device-width" />\r\n<meta name="description" content="A Computer Science portal for geeks. It contains well written, well thought and well explained computer science and programming articles, quizzes and practice/competitive programming/company interview Questions.">\r\n<link rel="shortcut icon" href="/gfg.png" type="image/x-icon" />\r\n\r\n<meta property="og:image" content="http://www.geeksforgeeks.org/wp-content/uploads/gfg_200X200.png">\r\n<meta property="og:image:type" content="image/png">\r\n<meta property="og:image:width" content="200">\r\n<meta property="og:image:height" content="200">\r\n\r\n<title>Perfect Binary Tree Specific Level Order Traversal - GeeksforGeeks</title>\r\n<link rel="profile" href="http://gmpg.org/xfn/11" />\r\n<link rel="pingback" href="" />\r\n<!--[if lt IE 9]>\r\n<script src="http://www.geeksforgeeks.org/wp-content/themes/iconic-one/js/html5.js" type="text/javascript"></script>\r\n<![endif]-->\r\n<script>\r\n    var domain = 1;\r\n    var arrPost = new Array();\r\n    var post_id = "132437";\r\n    var post_type = "post";\r\n    var post_slug = window.location.href;\r\n    var ip = "52.57.254.224";\r\n    var post_title = "Perfect Binary Tree Specific Level Order Traversal";\r\n    var post_status = "publish";\r\n                            var isAdminLoggedIn = 0;\r\n        </script>\r\n\n<!-- This site is optimized with the Yoast SEO plugin v3.7.1 - https://yoast.com/wordpress/plugins/seo/ -->\n<meta name="description" content="Level Order Traversal"/>\n<meta name="robots" content="noodp"/>\n<link rel="canonical" href="http://www.geeksforgeeks.org/perfect-binary-tree-specific-level-order-traversal/" />\n<meta property="og:locale" content="en_US" />\n<meta property="og:type" content="article" />\n<meta property="og:title" content="Perfect Binary Tree Specific Level Order Traversal - GeeksforGeeks" />\n<meta property="og:description" content="Level Order Traversal" />\n<meta property="og:url" content="http://www.geeksforgeeks.org/perfect-binary-tree-specific-level-order-traversal/" />\n<meta property="og:site_name" content="GeeksforGeeks" />\n<meta property="article:section" content="Trees" />\n<meta property="article:published_time" content="2014-11-12T15:00:00+00:00" />\n<meta property="article:modified_time" content="2016-07-22T17:53:35+00:00" />\n<meta property="og:updated_time" content="2016-07-22T17:53:35+00:00" />\n<meta property="og:image" content="http://www.geeksforgeeks.org/wp-content/uploads/image4.png" />\n<!-- / Yoast SEO plugin. -->\n\n<link rel=\'dns-prefetch\' href=\'//www.geeksforgeeks.org\' />\n<link rel=\'dns-prefetch\' href=\'//fonts.googleapis.com\' />\n<link rel=\'dns-prefetch\' href=\'//s.w.org\' />\n<link rel="alternate" type="application/rss+xml" title="GeeksforGeeks &raquo; Feed" href="http://www.geeksforgeeks.org/feed/" />\n<link rel="alternate" type="application/rss+xml" title="GeeksforGeeks &raquo; Comments Feed" href="http://www.geeksforgeeks.org/comments/feed/" />\n<link rel="alternate" type="application/rss+xml" title="GeeksforGeeks &raquo; Perfect Binary Tree Specific Level Order Traversal Comments Feed" href="http://www.geeksforgeeks.org/perfect-binary-tree-specific-level-order-traversal/feed/" />\n\t\t<script type="text/javascript">\n\t\t\twindow._wpemojiSettings = {"baseUrl":"https:\\/\\/s.w.org\\/images\\/core\\/emoji\\/2\\/72x72\\/","ext":".png","svgUrl":"https:\\/\\/s.w.org\\/images\\/core\\/emoji\\/2\\/svg\\/","svgExt":".svg","source":{"concatemoji":"http:\\/\\/www.geeksforgeeks.org\\/wp-includes\\/js\\/wp-emoji-release.min.js"}};\n\t\t\t!function(a,b,c){function d(a){var c,d,e,f,g,h=b.createElement("canvas"),i=h.getContext&&h.getContext("2d"),j=String.fromCharCode;if(!i||!i.fillText)return!1;switch(i.textBaseline="top",i.font="600 32px Arial",a){case"flag":return i.fillText(j(55356,56806,55356,56826),0,0),!(h.toDataURL().length<3e3)&&(i.clearRect(0,0,h.width,h.height),i.fillText(j(55356,57331,65039,8205,55356,57096),0,0),c=h.toDataURL(),i.clearRect(0,0,h.width,h.height),i.fillText(j(55356,57331,55356,57096),0,0),d=h.toDataURL(),c!==d);case"diversity":return i.fillText(j(55356,57221),0,0),e=i.getImageData(16,16,1,1).data,f=e[0]+","+e[1]+","+e[2]+","+e[3],i.fillText(j(55356,57221,55356,57343),0,0),e=i.getImageData(16,16,1,1).data,g=e[0]+","+e[1]+","+e[2]+","+e[3],f!==g;case"simple":return i.fillText(j(55357,56835),0,0),0!==i.getImageData(16,16,1,1).data[0];case"unicode8":return i.fillText(j(55356,57135),0,0),0!==i.getImageData(16,16,1,1).data[0];case"unicode9":return i.fillText(j(55358,56631),0,0),0!==i.getImageData(16,16,1,1).data[0]}return!1}function e(a){var c=b.createElement("script");c.src=a,c.type="text/javascript",b.getElementsByTagName("head")[0].appendChild(c)}var f,g,h,i;for(i=Array("simple","flag","unicode8","diversity","unicode9"),c.supports={everything:!0,everythingExceptFlag:!0},h=0;h<i.length;h++)c.supports[i[h]]=d(i[h]),c.supports.everything=c.supports.everything&&c.supports[i[h]],"flag"!==i[h]&&(c.supports.everythingExceptFlag=c.supports.everythingExceptFlag&&c.supports[i[h]]);c.supports.everythingExceptFlag=c.supports.everythingExceptFlag&&!c.supports.flag,c.DOMReady=!1,c.readyCallback=function(){c.DOMReady=!0},c.supports.everything||(g=function(){c.readyCallback()},b.addEventListener?(b.addEventListener("DOMContentLoaded",g,!1),a.addEventListener("load",g,!1)):(a.attachEvent("onload",g),b.attachEvent("onreadystatechange",function(){"complete"===b.readyState&&c.readyCallback()})),f=c.source||{},f.concatemoji?e(f.concatemoji):f.wpemoji&&f.twemoji&&(e(f.twemoji),e(f.wpemoji)))}(window,document,window._wpemojiSettings);\n\t\t</script>\n\t\t<style type="text/css">\nimg.wp-smiley,\nimg.emoji {\n\tdisplay: inline !important;\n\tborder: none !important;\n\tbox-shadow: none !important;\n\theight: 1em !important;\n\twidth: 1em !important;\n\tmargin: 0 .07em !important;\n\tvertical-align: -0.1em !important;\n\tbackground: none !important;\n\tpadding: 0 !important;\n}\n</style>\n<link rel=\'stylesheet\' id=\'mtq_CoreStyleSheets-css\'  href=\'http://www.geeksforgeeks.org/wp-content/plugins/mtouch-quiz/mtq_core_style.min.css\' type=\'text/css\' media=\'all\' />\n<link rel=\'stylesheet\' id=\'mtq_ThemeStyleSheets-css\'  href=\'http://www.geeksforgeeks.org/wp-content/plugins/mtouch-quiz/mtq_theme_style.min.css\' type=\'text/css\' media=\'all\' />\n<link rel=\'stylesheet\' id=\'wp-quicklatex-format-css\'  href=\'http://www.geeksforgeeks.org/wp-content/plugins/wp-quicklatex/css/quicklatex-format.css\' type=\'text/css\' media=\'all\' />\n<link rel=\'stylesheet\' id=\'themonic-fonts-css\'  href=\'http://fonts.googleapis.com/css?family=Ubuntu:400,700&#038;subset=latin,latin-ext\' type=\'text/css\' media=\'all\' />\n<link rel=\'stylesheet\' id=\'custom-style-css\'  href=\'http://www.geeksforgeeks.org/wp-content/themes/iconic-one/css/gfg-1.2.css\' type=\'text/css\' media=\'all\' />\n<script type=\'text/javascript\' src=\'http://www.geeksforgeeks.org/wp-includes/js/jquery/jquery.js\'></script>\n<script type=\'text/javascript\' src=\'http://www.geeksforgeeks.org/wp-includes/js/jquery/jquery-migrate.min.js\'></script>\n<script type=\'text/javascript\' src=\'http://www.geeksforgeeks.org/wp-content/themes/iconic-one/js/gfg-5.1.js\'></script>\n<link rel=\'https://api.w.org/\' href=\'http://www.geeksforgeeks.org/wp-json/\' />\n<link rel="EditURI" type="application/rsd+xml" title="RSD" href="http://www.cdn.geeksforgeeks.org/xmlrpc.php?rsd" />\n<link rel="wlwmanifest" type="application/wlwmanifest+xml" href="http://www.geeksforgeeks.org/wp-includes/wlwmanifest.xml" /> \n<meta name="generator" content="WordPress 4.6.6" />\n<link rel=\'shortlink\' href=\'http://www.geeksforgeeks.org/?p=132437\' />\n<link rel="alternate" type="application/json+oembed" href="http://www.geeksforgeeks.org/wp-json/oembed/1.0/embed?url=http%3A%2F%2Fwww.geeksforgeeks.org%2Fperfect-binary-tree-specific-level-order-traversal%2F" />\n<link rel="alternate" type="text/xml+oembed" href="http://www.geeksforgeeks.org/wp-json/oembed/1.0/embed?url=http%3A%2F%2Fwww.geeksforgeeks.org%2Fperfect-binary-tree-specific-level-order-traversal%2F&#038;format=xml" />\n<style>\r\n#wpadminbar{\r\nbackground: #ff0000 !important;\r\n}\r\n</style>\r\n<style type="text/css" id="custom-background-css">\nbody.custom-background { background-color: #ffffff; }\n</style>\n<style type="text/css" id="syntaxhighlighteranchor"></style>\n\r\n<script type=\'text/javascript\'>\r\n  var googletag = googletag || {};\r\n  googletag.cmd = googletag.cmd || [];\r\n  (function() {\r\n    var gads = document.createElement(\'script\');\r\n    gads.async = true;\r\n    gads.type = \'text/javascript\';\r\n    var useSSL = \'https:\' == document.location.protocol;\r\n    gads.src = (useSSL ? \'https:\' : \'http:\') +\r\n      \'//www.googletagservices.com/tag/js/gpt.js\';\r\n    var node = document.getElementsByTagName(\'script\')[0];\r\n    node.parentNode.insertBefore(gads, node);\r\n  })();\r\n</script>\r\n\r\n<script type=\'text/javascript\'>\r\n  googletag.cmd.push(function() {\r\n    googletag.defineSlot(\'/27823234/SP\', [300, 250], \'div-gpt-ad-1458112424022-0\').addService(googletag.pubads());\r\n    googletag.pubads().enableSingleRequest();\r\n    googletag.enableServices();\r\n  });\r\n</script>\r\n</head>\r\n\r\n<body class="single single-post postid-132437 single-format-standard custom-background custom-background-white custom-font-enabled">\r\n\r\n<!-- BuySellAds Ad Code -->\r\n<script type="text/javascript">\r\n(function(){\r\n  var bsa = document.createElement(\'script\');\r\n     bsa.type = \'text/javascript\';\r\n     bsa.async = true;\r\n     bsa.src = \'//s3.buysellads.com/ac/bsa.js\';\r\n  (document.getElementsByTagName(\'head\')[0]||document.getElementsByTagName(\'body\')[0]).appendChild(bsa);\r\n})();\r\n</script>\r\n<!-- End BuySellAds Ad Code -->\r\n\r\n<div id="page" style="position:relative;" class="hfeed site">\r\n\t<header id="masthead" class="site-header" role="banner">\r\n\t\t<div style="margin-bottom: 5px;">\t\r\n\t\t\t\t<hgroup class="main_gfg_title">\r\n\t\t\t<a href="http://www.geeksforgeeks.org/" title="GeeksforGeeks" rel="home">GeeksforGeeks</a>\r\n\t\t\t\t<br .../> <a class="site-description">A computer science portal for geeks</a>\r\n\t\t</hgroup>\r\n\t\t<span class="responsive-custom-search">\r\n<script>\r\n  (function() {\r\n    var cx = \'009682134359037907028:tj6eafkv_be\';\r\n    var gcse = document.createElement(\'script\');\r\n    gcse.type = \'text/javascript\';\r\n    gcse.async = true;\r\n    gcse.src = (document.location.protocol == \'https:\' ? \'https:\' : \'http:\') +\r\n        \'//cse.google.com/cse.js?cx=\' + cx;\r\n    var s = document.getElementsByTagName(\'script\')[0];\r\n    s.parentNode.insertBefore(gcse, s);\r\n  })();\r\n</script>\r\n\t\t\r\n\t\t<gcse:search></gcse:search>  \r\n\t\t</span>\r\n\r\n<div class="top-button-div">\r\n<hgroup style="float:right;display:inline-block;margin-top:5px;">   \r\n\r\n\r\n<a class="products" href="http://practice.geeksforgeeks.org/">Practice</a>\r\n\r\n<a class="products" href="http://quiz.geeksforgeeks.org/gate-corner-2/">GATE CS</a>\r\n\r\n<a class="products" href="http://quiz.geeksforgeeks.org/placements/">Placements</a>\r\n\r\n<a class="products" href="https://www.youtube.com/geeksforgeeksvideos/">Videos</a>\r\n\r\n<a class="products" href="http://www.geeksforgeeks.org/contribute/">Contribute</a>\r\n</hgroup><br></br>\r\n\r\n\r\n<div id="profile" style="float: right; margin-top: -1%;margin-right:1%;"></div>\r\n</div>\r\n</div>\r\n\r\n\t\t\r\n\t\t\r\n\t\t<nav id="site-navigation" class="themonic-nav" role="navigation">\r\n\t\t\t<a class="assistive-text" href="#content" title="Skip to content">Skip to content</a>\r\n\t\t\t<div class="menu-iconic-container"><ul id="menu-top" class="nav-menu"><li id="menu-item-147519" class="menu-item menu-item-type-custom menu-item-object-custom menu-item-147519"><a href="/"><img style="width: 30px;vertical-align: middle;" src="http://www.geeksforgeeks.org/wp-content/uploads/gfg_transparent_white_small.png"></a></li>\n<li id="menu-item-141975" class="menu-item menu-item-type-custom menu-item-object-custom menu-item-has-children menu-item-141975"><a href="http://www.geeksforgeeks.org/fundamentals-of-algorithms/">Algo \xe2\x96\xbc</a>\n<ul class="sub-menu">\n\t<li id="menu-item-135030" class="menu-item menu-item-type-custom menu-item-object-custom menu-item-135030"><a href="http://www.geeksforgeeks.org/fundamentals-of-algorithms/#AnalysisofAlgorithms">Analysis of Algorithms</a></li>\n\t<li id="menu-item-146823" class="menu-item menu-item-type-custom menu-item-object-custom menu-item-has-children menu-item-146823"><a href="http://www.geeksforgeeks.org/fundamentals-of-algorithms/">Topicwise \xe2\x96\xba</a>\n\t<ul class="sub-menu">\n\t\t<li id="menu-item-147774" class="menu-item menu-item-type-custom menu-item-object-custom menu-item-147774"><a href="http://www.geeksforgeeks.org/searching-algorithms/">Searching Algorithms</a></li>\n\t\t<li id="menu-item-147773" class="menu-item menu-item-type-custom menu-item-object-custom menu-item-147773"><a href="http://www.geeksforgeeks.org/sorting-algorithms/">Sorting Algorithms</a></li>\n\t\t<li id="menu-item-135041" class="menu-item menu-item-type-custom menu-item-object-custom menu-item-135041"><a href="http://www.geeksforgeeks.org/graph-data-structure-and-algorithms/">Graph Algorithms</a></li>\n\t\t<li id="menu-item-135040" class="menu-item menu-item-type-custom menu-item-object-custom menu-item-135040"><a href="http://www.geeksforgeeks.org/bitwise-algorithms/">Bit Algorithms</a></li>\n\t\t<li id="menu-item-135034" class="menu-item menu-item-type-custom menu-item-object-custom menu-item-135034"><a href="http://www.geeksforgeeks.org/fundamentals-of-algorithms/#PatternSearching">Pattern Searching</a></li>\n\t\t<li id="menu-item-135038" class="menu-item menu-item-type-custom menu-item-object-custom menu-item-135038"><a href="http://www.geeksforgeeks.org/fundamentals-of-algorithms/#GeometricAlgorithms">Geometric Algorithms</a></li>\n\t\t<li id="menu-item-135039" class="menu-item menu-item-type-custom menu-item-object-custom menu-item-135039"><a href="http://www.geeksforgeeks.org/fundamentals-of-algorithms/#MathematicalAlgorithms">Mathematical Algorithms</a></li>\n\t\t<li id="menu-item-135042" class="menu-item menu-item-type-custom menu-item-object-custom menu-item-135042"><a href="http://www.geeksforgeeks.org/randomized-algorithms/">Randomized Algorithms</a></li>\n\t</ul>\n</li>\n\t<li id="menu-item-146824" class="menu-item menu-item-type-custom menu-item-object-custom menu-item-has-children menu-item-146824"><a href="http://www.geeksforgeeks.org/fundamentals-of-algorithms/">Algorithm Paradigms \xe2\x96\xba</a>\n\t<ul class="sub-menu">\n\t\t<li id="menu-item-135032" class="menu-item menu-item-type-custom menu-item-object-custom menu-item-135032"><a href="http://www.geeksforgeeks.org/greedy-algorithms/">Greedy Algorithms</a></li>\n\t\t<li id="menu-item-135033" class="menu-item menu-item-type-custom menu-item-object-custom menu-item-135033"><a href="http://www.geeksforgeeks.org/dynamic-programming/">Dynamic Programming</a></li>\n\t\t<li id="menu-item-135037" class="menu-item menu-item-type-custom menu-item-object-custom menu-item-135037"><a href="http://www.geeksforgeeks.org/fundamentals-of-algorithms/#DivideandConquer">Divide and Conquer</a></li>\n\t\t<li id="menu-item-135036" class="menu-item menu-item-type-custom menu-item-object-custom menu-item-135036"><a href="http://www.geeksforgeeks.org/fundamentals-of-algorithms/#Backtracking">Backtracking</a></li>\n\t\t<li id="menu-item-137933" class="menu-item menu-item-type-custom menu-item-object-custom menu-item-137933"><a href="http://www.geeksforgeeks.org/fundamentals-of-algorithms/#BranchandBound">Branch &#038; Bound</a></li>\n\t</ul>\n</li>\n\t<li id="menu-item-146911" class="menu-item menu-item-type-custom menu-item-object-custom menu-item-146911"><a href="http://www.geeksforgeeks.org/fundamentals-of-algorithms/">All Algorithms</a></li>\n</ul>\n</li>\n<li id="menu-item-142016" class="menu-item menu-item-type-custom menu-item-object-custom menu-item-has-children menu-item-142016"><a href="http://www.geeksforgeeks.org/data-structures/">DS  \xe2\x96\xbc</a>\n<ul class="sub-menu">\n\t<li id="menu-item-135054" class="menu-item menu-item-type-custom menu-item-object-custom menu-item-135054"><a href="http://www.geeksforgeeks.org/array-data-structure/">Array</a></li>\n\t<li id="menu-item-135045" class="menu-item menu-item-type-custom menu-item-object-custom menu-item-135045"><a href="http://www.geeksforgeeks.org/data-structures/linked-list/">LinkedList</a></li>\n\t<li id="menu-item-135046" class="menu-item menu-item-type-custom menu-item-object-custom menu-item-135046"><a href="http://www.geeksforgeeks.org/stack-data-structure/">Stack</a></li>\n\t<li id="menu-item-135047" class="menu-item menu-item-type-custom menu-item-object-custom menu-item-135047"><a href="http://www.geeksforgeeks.org/queue-data-structure/">Queue</a></li>\n\t<li id="menu-item-146827" class="menu-item menu-item-type-custom menu-item-object-custom menu-item-has-children menu-item-146827"><a href="http://www.geeksforgeeks.org/data-structures/">Tree based DS \xe2\x96\xba</a>\n\t<ul class="sub-menu">\n\t\t<li id="menu-item-135048" class="menu-item menu-item-type-custom menu-item-object-custom menu-item-135048"><a href="http://www.geeksforgeeks.org/binary-tree-data-structure/">Binary Tree</a></li>\n\t\t<li id="menu-item-135049" class="menu-item menu-item-type-custom menu-item-object-custom menu-item-135049"><a href="http://www.geeksforgeeks.org/binary-search-tree-data-structure/">Binary Search Tree</a></li>\n\t\t<li id="menu-item-135050" class="menu-item menu-item-type-custom menu-item-object-custom menu-item-135050"><a href="http://www.geeksforgeeks.org/heap-data-structure/">Heap</a></li>\n\t</ul>\n</li>\n\t<li id="menu-item-135051" class="menu-item menu-item-type-custom menu-item-object-custom menu-item-135051"><a href="http://www.geeksforgeeks.org/hashing-data-structure/">Hashing</a></li>\n\t<li id="menu-item-135052" class="menu-item menu-item-type-custom menu-item-object-custom menu-item-135052"><a href="http://www.geeksforgeeks.org/graph-data-structure-and-algorithms/">Graph</a></li>\n\t<li id="menu-item-135053" class="menu-item menu-item-type-custom menu-item-object-custom menu-item-135053"><a href="http://www.geeksforgeeks.org/advanced-data-structures/">Advanced Data Structure</a></li>\n\t<li id="menu-item-135055" class="menu-item menu-item-type-custom menu-item-object-custom menu-item-135055"><a href="http://www.geeksforgeeks.org/matrix/">Matrix</a></li>\n\t<li id="menu-item-147716" class="menu-item menu-item-type-custom menu-item-object-custom menu-item-147716"><a href="http://www.geeksforgeeks.org/category/data-structures/c-strings/">Strings</a></li>\n\t<li id="menu-item-135056" class="menu-item menu-item-type-custom menu-item-object-custom menu-item-135056"><a href="http://www.geeksforgeeks.org/data-structures/">All Data Structures</a></li>\n</ul>\n</li>\n<li id="menu-item-147478" class="menu-item menu-item-type-custom menu-item-object-custom menu-item-has-children menu-item-147478"><a href="http://www.geeksforgeeks.org/category/program-output/">Languages \xe2\x96\xbc</a>\n<ul class="sub-menu">\n\t<li id="menu-item-135006" class="menu-item menu-item-type-post_type menu-item-object-page menu-item-135006"><a href="http://www.geeksforgeeks.org/c/">C</a></li>\n\t<li id="menu-item-135007" class="menu-item menu-item-type-post_type menu-item-object-page menu-item-135007"><a href="http://www.geeksforgeeks.org/c-plus-plus/">C++</a></li>\n\t<li id="menu-item-135012" class="menu-item menu-item-type-post_type menu-item-object-page menu-item-135012"><a href="http://www.geeksforgeeks.org/java/">Java</a></li>\n\t<li id="menu-item-137004" class="menu-item menu-item-type-post_type menu-item-object-page menu-item-137004"><a href="http://www.geeksforgeeks.org/python/">Python</a></li>\n\t<li id="menu-item-135016" class="menu-item menu-item-type-custom menu-item-object-custom menu-item-135016"><a href="http://www.geeksforgeeks.org/sql-tutorial/">SQL</a></li>\n\t<li id="menu-item-140854" class="menu-item menu-item-type-taxonomy menu-item-object-category menu-item-140854"><a title="http://www.geeksforgeeks.org/category/program-output/" href="http://www.geeksforgeeks.org/category/program-output/">Program Output</a></li>\n</ul>\n</li>\n<li id="menu-item-142017" class="menu-item menu-item-type-custom menu-item-object-custom menu-item-has-children menu-item-142017"><a href="http://www.geeksforgeeks.org/about/interview-corner/">Interview  \xe2\x96\xbc</a>\n<ul class="sub-menu">\n\t<li id="menu-item-141326" class="menu-item menu-item-type-post_type menu-item-object-page menu-item-141326"><a href="http://www.geeksforgeeks.org/company-preparation/">Company Prep</a></li>\n\t<li id="menu-item-137171" class="menu-item menu-item-type-custom menu-item-object-custom menu-item-137171"><a href="http://www.geeksforgeeks.org/interview-preparation-for-software-developer/">Top Topics</a></li>\n\t<li id="menu-item-137172" class="menu-item menu-item-type-custom menu-item-object-custom menu-item-137172"><a href="http://www.practice.geeksforgeeks.org/tags.php?">Practice Company Questions</a></li>\n\t<li id="menu-item-137173" class="menu-item menu-item-type-custom menu-item-object-custom menu-item-137173"><a href="http://www.geeksforgeeks.org/about/interview-corner/">Interview Experiences</a></li>\n\t<li id="menu-item-137174" class="menu-item menu-item-type-custom menu-item-object-custom menu-item-137174"><a href="http://www.geeksforgeeks.org/category/interview-experiences/experienced-interview-experiences/">Experienced Interviews</a></li>\n\t<li id="menu-item-137175" class="menu-item menu-item-type-custom menu-item-object-custom menu-item-137175"><a href="http://www.geeksforgeeks.org/category/interview-experiences/internship-interview-experiences/">Internship Interviews</a></li>\n\t<li id="menu-item-137176" class="menu-item menu-item-type-custom menu-item-object-custom menu-item-137176"><a href="http://www.geeksforgeeks.org/category/competitive-programming/">Competitive Programming</a></li>\n\t<li id="menu-item-147581" class="menu-item menu-item-type-custom menu-item-object-custom menu-item-147581"><a href="http://www.geeksforgeeks.org/software-design-patterns/">Design Patterns</a></li>\n\t<li id="menu-item-137186" class="menu-item menu-item-type-custom menu-item-object-custom menu-item-137186"><a href="http://geeksquiz.com/quiz-corner/">Multiple Choice Quizzes</a></li>\n</ul>\n</li>\n<li id="menu-item-137178" class="menu-item menu-item-type-custom menu-item-object-custom menu-item-has-children menu-item-137178"><a href="http://www.geeksforgeeks.org/student-corner/">Students  \xe2\x96\xbc</a>\n<ul class="sub-menu">\n\t<li id="menu-item-137183" class="menu-item menu-item-type-custom menu-item-object-custom menu-item-137183"><a href="http://www.geeksforgeeks.org/campus-ambassador-program-by-geeksforgeeks/">Campus Ambassador Program</a></li>\n\t<li id="menu-item-137179" class="menu-item menu-item-type-custom menu-item-object-custom menu-item-137179"><a href="http://www.geeksforgeeks.org/geek-of-the-month/">Geek of the Month</a></li>\n\t<li id="menu-item-137570" class="menu-item menu-item-type-custom menu-item-object-custom menu-item-137570"><a href="http://geeksquiz.com/placements/">Placement Course</a></li>\n\t<li id="menu-item-136004" class="menu-item menu-item-type-taxonomy menu-item-object-category menu-item-136004"><a href="http://www.geeksforgeeks.org/category/project/">Project</a></li>\n\t<li id="menu-item-137180" class="menu-item menu-item-type-custom menu-item-object-custom menu-item-137180"><a href="http://www.geeksforgeeks.org/category/competitive-programming/">Competitive Programming</a></li>\n\t<li id="menu-item-137181" class="menu-item menu-item-type-custom menu-item-object-custom menu-item-137181"><a href="http://www.geeksforgeeks.org/testimonials/">Testimonials</a></li>\n\t<li id="menu-item-138863" class="menu-item menu-item-type-custom menu-item-object-custom menu-item-138863"><a href="http://www.geeksforgeeks.org/category/geek-on-the-top/">Geek on the Top</a></li>\n\t<li id="menu-item-141974" class="menu-item menu-item-type-custom menu-item-object-custom menu-item-141974"><a href="http://www.geeksforgeeks.org/jobs/">Jobs</a></li>\n\t<li id="menu-item-137378" class="menu-item menu-item-type-custom menu-item-object-custom menu-item-137378"><a href="http://www.geeksforgeeks.org/internship/">Internship</a></li>\n\t<li id="menu-item-147457" class="menu-item menu-item-type-custom menu-item-object-custom menu-item-147457"><a href="http://www.geeksforgeeks.org/school-programming/">School Programming</a></li>\n</ul>\n</li>\n<li id="menu-item-146712" class="menu-item menu-item-type-custom menu-item-object-custom menu-item-has-children menu-item-146712"><a href="http://www.geeksforgeeks.org/gate-corner-2-gq/">GATE \xe2\x96\xbc</a>\n<ul class="sub-menu">\n\t<li id="menu-item-146713" class="menu-item menu-item-type-custom menu-item-object-custom menu-item-146713"><a href="http://www.geeksforgeeks.org/gate-corner-2-gq/">GATE CS Corner</a></li>\n\t<li id="menu-item-146714" class="menu-item menu-item-type-custom menu-item-object-custom menu-item-146714"><a href="http://www.geeksforgeeks.org/gate-cs-notes-gq/">GATE Notes</a></li>\n\t<li id="menu-item-146715" class="menu-item menu-item-type-custom menu-item-object-custom menu-item-146715"><a href="http://www.geeksforgeeks.org/lmns-gq/">Last Minute Notes</a></li>\n\t<li id="menu-item-146716" class="menu-item menu-item-type-custom menu-item-object-custom menu-item-146716"><a href="http://www.geeksforgeeks.org/original-gate-previous-year-question-papers-cse-and-it-gq/">Official Papers</a></li>\n\t<li id="menu-item-146717" class="menu-item menu-item-type-custom menu-item-object-custom menu-item-146717"><a href="http://www.geeksforgeeks.org/gate-2017-important-dates-and-links/">Gate 2017 Important Dates and Links</a></li>\n</ul>\n</li>\n<li id="menu-item-146718" class="menu-item menu-item-type-custom menu-item-object-custom menu-item-has-children menu-item-146718"><a href="http://www.geeksforgeeks.org/articles-on-computer-science-subjects-gq/">CS Subjects \xe2\x96\xbc</a>\n<ul class="sub-menu">\n\t<li id="menu-item-146729" class="menu-item menu-item-type-custom menu-item-object-custom menu-item-146729"><a href="http://www.geeksforgeeks.org/operating-systems/">Operating Systems</a></li>\n\t<li id="menu-item-146724" class="menu-item menu-item-type-custom menu-item-object-custom menu-item-146724"><a href="http://www.geeksforgeeks.org/dbms/">DBMS</a></li>\n\t<li id="menu-item-146721" class="menu-item menu-item-type-custom menu-item-object-custom menu-item-146721"><a href="http://www.geeksforgeeks.org/computer-network-tutorials/">Computer Networks</a></li>\n\t<li id="menu-item-146720" class="menu-item menu-item-type-custom menu-item-object-custom menu-item-146720"><a href="http://www.geeksforgeeks.org/compiler-design-tutorials/">Compiler Design</a></li>\n\t<li id="menu-item-147831" class="menu-item menu-item-type-custom menu-item-object-custom menu-item-147831"><a href="http://www.geeksforgeeks.org/web-technology/">Web Technology</a></li>\n\t<li id="menu-item-146722" class="menu-item menu-item-type-custom menu-item-object-custom menu-item-146722"><a href="http://www.geeksforgeeks.org/computer-organization-and-architecture-tutorials/">Computer Organization &#038; Architecture</a></li>\n\t<li id="menu-item-146726" class="menu-item menu-item-type-custom menu-item-object-custom menu-item-146726"><a href="http://www.geeksforgeeks.org/digital-electronics-logic-design-tutorials/">Digital Electronics</a></li>\n\t<li id="menu-item-146727" class="menu-item menu-item-type-custom menu-item-object-custom menu-item-146727"><a href="http://www.geeksforgeeks.org/engineering-mathematics-tutorials/">Engg. Mathematics</a></li>\n\t<li id="menu-item-146730" class="menu-item menu-item-type-custom menu-item-object-custom menu-item-146730"><a href="http://www.geeksforgeeks.org/theory-of-computation-automata-tutorials/">Theory of Computation</a></li>\n\t<li id="menu-item-147512" class="menu-item menu-item-type-custom menu-item-object-custom menu-item-147512"><a href="http://www.geeksforgeeks.org/advanced-computer-subjects-tutorials/">Advanced Topics</a></li>\n\t<li id="menu-item-146725" class="menu-item menu-item-type-custom menu-item-object-custom menu-item-146725"><a href="http://www.geeksforgeeks.org/category/geeksquiz/articles-gq/difference-gq/">What&#8217;s Difference?</a></li>\n</ul>\n</li>\n<li id="menu-item-140855" class="menu-item menu-item-type-custom menu-item-object-custom menu-item-has-children menu-item-140855"><a href="http://quiz.geeksforgeeks.org/quiz-corner/">Quizzes \xe2\x96\xbc</a>\n<ul class="sub-menu">\n\t<li id="menu-item-146748" class="menu-item menu-item-type-custom menu-item-object-custom menu-item-has-children menu-item-146748"><a href="http://www.geeksforgeeks.org/quizzes-on-programming-languages-gq/">Languages \xe2\x96\xba</a>\n\t<ul class="sub-menu">\n\t\t<li id="menu-item-146743" class="menu-item menu-item-type-custom menu-item-object-custom menu-item-146743"><a href="http://www.geeksforgeeks.org/quiz-corner-gq/#C%20Programming%20Mock%20Tests">C</a></li>\n\t\t<li id="menu-item-146745" class="menu-item menu-item-type-custom menu-item-object-custom menu-item-146745"><a href="http://www.geeksforgeeks.org/quiz-corner-gq/#C++%20Programming%20Mock%20Tests">C++</a></li>\n\t\t<li id="menu-item-146746" class="menu-item menu-item-type-custom menu-item-object-custom menu-item-146746"><a href="http://www.geeksforgeeks.org/quiz-corner-gq/#Java%20Programming%20Mock%20Tests">Java</a></li>\n\t\t<li id="menu-item-146747" class="menu-item menu-item-type-custom menu-item-object-custom menu-item-146747"><a href="http://www.geeksforgeeks.org/quiz-corner-gq/#Python%20Programming%20Mock%20Tests">Python</a></li>\n\t</ul>\n</li>\n\t<li id="menu-item-146825" class="menu-item menu-item-type-custom menu-item-object-custom menu-item-has-children menu-item-146825"><a href="http://www.geeksforgeeks.org/quiz-corner-gq/#Data%20Structures%20Mock%20Tests">CS Subjectwise \xe2\x96\xba</a>\n\t<ul class="sub-menu">\n\t\t<li id="menu-item-146731" class="menu-item menu-item-type-custom menu-item-object-custom menu-item-146731"><a href="http://www.geeksforgeeks.org/quiz-corner-gq/#Data%20Structures%20Mock%20Tests">Data Structures</a></li>\n\t\t<li id="menu-item-146732" class="menu-item menu-item-type-custom menu-item-object-custom menu-item-146732"><a href="http://www.geeksforgeeks.org/quiz-corner-gq/#Algorithms%20Mock%20Tests">Algorithms</a></li>\n\t\t<li id="menu-item-146733" class="menu-item menu-item-type-custom menu-item-object-custom menu-item-146733"><a href="http://www.geeksforgeeks.org/quiz-corner-gq/#Operating%20Systems%20Mock%20Tests">Operating Systems</a></li>\n\t\t<li id="menu-item-146734" class="menu-item menu-item-type-custom menu-item-object-custom menu-item-146734"><a href="http://www.geeksforgeeks.org/quiz-corner-gq/#DBMS%20Mock%20Tests">DBMS</a></li>\n\t\t<li id="menu-item-146735" class="menu-item menu-item-type-custom menu-item-object-custom menu-item-146735"><a href="http://www.geeksforgeeks.org/quiz-corner-gq/#Compiler%20Design%20Mock%20Tests">Compiler Design</a></li>\n\t\t<li id="menu-item-146736" class="menu-item menu-item-type-custom menu-item-object-custom menu-item-146736"><a href="http://www.geeksforgeeks.org/quiz-corner-gq/#Computer%20Networks%20Mock%20Tests">Computer Networks</a></li>\n\t\t<li id="menu-item-146737" class="menu-item menu-item-type-custom menu-item-object-custom menu-item-146737"><a href="http://www.geeksforgeeks.org/quiz-corner-gq/#Theory%20of%20Computation%20Mock%20Tests">Theory of Computation</a></li>\n\t\t<li id="menu-item-146738" class="menu-item menu-item-type-custom menu-item-object-custom menu-item-146738"><a href="http://www.geeksforgeeks.org/quiz-corner-gq/#Computer%20Organization%20and%20Architecture">Computer Organization</a></li>\n\t\t<li id="menu-item-146739" class="menu-item menu-item-type-custom menu-item-object-custom menu-item-146739"><a href="http://www.geeksforgeeks.org/software-engineering-gq/">Software Engineering</a></li>\n\t</ul>\n</li>\n\t<li id="menu-item-146740" class="menu-item menu-item-type-custom menu-item-object-custom menu-item-146740"><a href="http://www.geeksforgeeks.org/html-and-xml-gq/">HTML &#038; XML</a></li>\n\t<li id="menu-item-146741" class="menu-item menu-item-type-custom menu-item-object-custom menu-item-146741"><a href="http://www.geeksforgeeks.org/quiz-corner-gq/#Engineering%20Mathematics">Engg. Mathematics</a></li>\n\t<li id="menu-item-146742" class="menu-item menu-item-type-custom menu-item-object-custom menu-item-146742"><a href="http://www.geeksforgeeks.org/quiz-corner-gq/#Aptitude%20Mock%20Tests">Aptitude</a></li>\n</ul>\n</li>\n<li id="menu-item-135367" class="menu-item menu-item-type-taxonomy menu-item-object-category menu-item-135367"><a href="http://www.geeksforgeeks.org/category/guestblogs/">GBlog</a></li>\n<li id="menu-item-141885" class="menu-item menu-item-type-custom menu-item-object-custom menu-item-141885"><a href="http://www.geeksforgeeks.org/puzzles/">Puzzles</a></li>\n<li id="menu-item-141816" class="menu-item menu-item-type-custom menu-item-object-custom menu-item-141816"><a href="http://www.geeksforgeeks.org/progeek-cup-1-0-project-competition-geeksforgeeks/">What&#8217;s New?</a></li>\n</ul></div>\t\t</nav><!-- #site-navigation -->\r\n\t\t<div class="clear"></div>\r\n\t</header><!-- #masthead -->\r\n<button id="scrollTopBtn" title="Scroll to Top" type="button" class="btn btn-success">&#x25B2;</button>\r\n\t<div id="main" class="wrapper">\r\n<div class="leftSideBarParent">\r\n    <div class="leftSideBar">\r\n        <div class="menuDivForLeftbar"><div class="bar1"></div><div class="bar2"></div><div class="bar3"></div></div><span class="leftbarDataSpan" data-pid="132437" data-lid="1" data-type="post" data-termid="19"></span><div class="quickLink_S">\n<table>\n<tbody>\n\n<tr>\n<td class="quickLink-header_S"><b>Interview Preparation</td>\n</tr>\n\n<tr>\n<td><a href="http://www.geeksforgeeks.org/company-preparation/">Company Preparation</a></td>\n</tr>\n\n<tr>\n<td><a href="http://www.geeksforgeeks.org/interview-preparation-for-software-developer/">Top Topics</a></td>\n</tr>\n\n<tr>\n<td><a href="http://www.geeksforgeeks.org/placements-gq/">Placements</a></td>\n</tr>\n\n<tr>\n<td><a href="http://www.geeksforgeeks.org/company-interview-corner/">Interview Corner</a></td>\n</tr>\n\n\n<tr>\n<td><a href="http://www.geeksforgeeks.org/category/interview-experiences/">Recent Interview Experiences</a></td>\n</tr>\n\n\n<tr>\n<td><a href="http://www.geeksforgeeks.org/geeksquiz-home/">GQ Home Page</a></td>\n</tr>\n\n<tr>\n<td><a href="http://www.geeksforgeeks.org/quiz-corner-gq/">Quiz Corner</a></td>\n</tr>\n\n<tr>\n<td><a href="http://www.geeksforgeeks.org/lmns-gq/">LMNs</a></td>\n</tr>\n\n<tr>\n<td class="quickLink-header_S"><b>Practice Platform</b></td>\n</tr>\n\n<tr>\n<td><a href="http://practice.geeksforgeeks.org/recent.php?ref=home">What\'s New ?</a></td>\n</tr>\n\n<tr>\n<td><a href="http://practice.geeksforgeeks.org/ranking.php?ref=home">Leaderboard !!</a></td>\n</tr>\n\n<tr>\n<td><a href="http://practice.geeksforgeeks.org/company-tags/?ref=home">Company-wise Problems</a></td>\n</tr>\n\n<tr>\n<td><a href="http://practice.geeksforgeeks.org/topic-tags/?ref=home">Topic-wise Problems</a></td>\n</tr>\n\n<tr>\n<td><a href="http://practice.geeksforgeeks.org/subjective-page.php?ref=home">Subjective Problems</a></td>\n</tr>\n\n<tr>\n<td><a href="http://practice.geeksforgeeks.org/School/0/0/?ref=home">Difficulty Level - School</a></td>\n</tr>\n\n<tr>\n<td><a href="http://practice.geeksforgeeks.org/Basic/0/0/?ref=home">Difficulty Level - Basic</a></td>\n</tr>\n\n<tr>\n<td><a href="http://practice.geeksforgeeks.org/Easy/0/0/?ref=home">Difficulty Level - Easy</a></td>\n</tr>\n\n<tr>\n<td><a href="http://practice.geeksforgeeks.org/Medium/0/0/?ref=home">Difficulty Level - Medium</a></td>\n</tr>\n\n<tr>\n<td><a href="http://practice.geeksforgeeks.org/Hard/0/0/?ref=home">Difficulty Level - Hard</a></td>\n</tr>\n\n<tr>\n<td><a href="http://practice.geeksforgeeks.org/pickACategory.php?ref=home">How to pick a difficulty level?</a></td>\n</tr>\n\n<tr>\n<td><a href="http://practice.geeksforgeeks.org/?ref=home">Explore More...</a></td>\n</tr>\n\n\n<tr>\n<td class="quickLink-header_S"><b>Programming Languages</b></td>\n</tr>\n\n<tr>\n<td><a href="http://www.geeksforgeeks.org/c/">C</a></td>\n</tr>\n\n<tr>\n<td><a href="http://www.geeksforgeeks.org/c-plus-plus/">C++</a></td>\n</tr>\n\n<tr>\n<td><a href="http://www.geeksforgeeks.org/java/">Java</a></td>\n</tr>\n\n<tr>\n<td><a href="http://www.geeksforgeeks.org/python/">Python</a></td>\n</tr>\n\n\n<tr>\n<td><a href="http://www.geeksforgeeks.org/sql-tutorial/">SQL</a></td>\n</tr>\n\n\n<tr>\n<td class="quickLink-header_S"><b>Important Quick Links</b></td>\n</tr>\n\n<tr>\n<td><a href="http://www.geeksforgeeks.org/school-programming/">School Programming</a></td>\n</tr>\n\n<tr>\n<td><a href="http://www.geeksforgeeks.org/operating-systems/">Operating Systems</a></td>\n</tr>\n\n<tr>\n<td><a href="http://www.geeksforgeeks.org/dbms/">DBMS</a></td>\n</tr>\n\n<tr>\n<td><a href="http://www.geeksforgeeks.org/computer-network-tutorials/">Computer Networks</a></td>\n</tr>\n\n<tr>\n<td><a href="http://www.geeksforgeeks.org/engineering-mathematics-tutorials/">Engineering Mathematics</a></td>\n</tr>\n\n<tr>\n<td><a href="http://www.geeksforgeeks.org/category/design-pattern/">Design Patterns</a></td>\n</tr>\n\n<tr>\n<td><a href="http://www.geeksforgeeks.org/category/puzzles/">Common Interview Puzzles</a></td>\n</tr>\n\n\n<tr>\n<td><a href="http://www.geeksforgeeks.org/web-technology/">Web Technology</a></td>\n\n<tr>\n<td><a href="http://www.geeksforgeeks.org/category/gfact/">G-Facts</a></td>\n</tr>\n\n<tr>\n<td><a href="http://www.geeksforgeeks.org/tag/computer-graphics/">Computer Graphics</a></td>\n</tr>\n\n<tr>\n<td><a href="http://www.geeksforgeeks.org/tag/image-processing/">Image Processing</a></td>\n</tr>\n\n<tr>\n<td><a href="http://www.geeksforgeeks.org/category/project/">Project Ideas</a></td>\n</tr>\n\n</tbody>\n</table>\n</div>    </div>\r\n</div>\r\n\t<div id="primary" class="site-content">\r\n\t\t<div id="content" role="main">\r\n                        \t\t\t\t\t\t\t\r\n\t<article id="post-132437" class="post-132437 post type-post status-publish format-standard hentry category-tree">\r\n\t\t\t\t<header class="entry-header">\r\n\t\t\t\t\t\t<h1 class="entry-title">Perfect Binary Tree Specific Level Order Traversal</h1>\r\n\t\t\t\t\r\n\t\t\t</header><!-- .entry-header -->\r\n\r\n\t\t\t\t<div class="entry-content">\r\n\t\t\t<p>Given a <a title="perfect binary tree" href="http://xlinux.nist.gov/dads//HTML/perfectBinaryTree.html" target="_blank">Perfect Binary Tree</a> like below:<br />\n(click on image to get a clear view)<span id="more-132437"></span></p>\n<p><a href="http://www.geeksforgeeks.org/wp-content/uploads/image4.png"><img src="http://www.geeksforgeeks.org/wp-content/uploads/image4.png" alt="image(4)" width="429" height="254" class="aligncenter size-full wp-image-137579" srcset="http://www.geeksforgeeks.org/wp-content/uploads/image4.png 429w, http://www.geeksforgeeks.org/wp-content/uploads/image4-300x178.png 300w" sizes="(max-width: 429px) 100vw, 429px" /></a></p>\n<p>Print the level order of nodes in following specific manner:</p>\n<pre> <font size="1"> <span style="color: blue;">1</span> <span style="color: red;">2 3</span> <span style="color: blue;">4 7 5 6</span> <span style="color: red;">8 15 9 14 10 13 11 12</span> <span style="color: blue;">16 31 17 30 18 29 19 28 20 27 21 26  22 25 23 24</span></font></pre>\n<p>i.e. print nodes in level order but nodes should be from left and right side alternatively. Here 1<sup>st</sup> and 2<sup>nd</sup> levels are trivial.<br />\nWhile 3<sup>rd</sup> level: 4(left), 7(right), 5(left), 6(right) are printed.<br />\nWhile 4<sup>th</sup> level: 8(left), 15(right), 9(left), 14(right), .. are printed.<br />\nWhile 5<sup>th</sup> level: 16(left), 31(right), 17(left), 30(right), .. are printed.</p>\n<p><strong>We strongly recommend to minimize your browser and try this yourself first.</strong></p>\n<p>In standard <a href="http://www.geeksforgeeks.org/level-order-tree-traversal/" target="_blank">Level Order Traversal</a>, we enqueue root into a queue 1<sup>st</sup>, then we dequeue ONE node from queue, process (print) it, enqueue its children into queue. We keep doing this until queue is empty.</p>\n<p><strong>Approach 1:</strong><br />\nWe can do standard level order traversal here too but instead of printing nodes directly, we have to store nodes in current level in a temporary array or list 1<sup>st</sup> and then take nodes from alternate ends (left and right) and print nodes. Keep repeating this for all levels.<br />\nThis approach takes more memory than standard traversal.</p>\n<p><strong>Approach 2:</strong><br />\nThe standard level order traversal idea will slightly change here. Instead of processing ONE node at a time, we will process TWO nodes at a time. And while pushing children into queue, the enqueue order will be: 1<sup>st</sup> node&#8217;s left child, 2<sup>nd</sup> node&#8217;s right child, 1<sup>st</sup> node&#8217;s right child and 2<sup>nd</sup> node&#8217;s left child.</p>\n<div class="responsive-tabs">\n<h2 class="tabtitle">C++</h2>\n<div class="tabcontent">\n\n<pre class="brush: cpp; highlight: [25,26,27,28,29,30,31,32,33,34,35,36,37,38,39,40,41,42,43,44,45,46,47,48,49,50,51,52,53,54,55,56,57,58,59,60,61,62,63,64,65,66,67,68,69,70,71,72,73,74,75,76]; title: ; notranslate" title="">\r\n/* C++ program for special order traversal */\r\n#include &lt;iostream&gt;\r\n#include &lt;queue&gt;\r\nusing namespace std;\r\n\r\n/* A binary tree node has data, pointer to left child\r\n   and a pointer to right child */\r\nstruct Node\r\n{\r\n    int data;\r\n    Node *left;\r\n    Node *right;\r\n};\r\n\r\n/* Helper function that allocates a new node with the\r\n   given data and NULL left and right pointers. */\r\nNode *newNode(int data)\r\n{\r\n    Node *node = new Node;\r\n    node-&gt;data = data;\r\n    node-&gt;right = node-&gt;left = NULL;\r\n    return node;\r\n}\r\n\r\n/* Given a perfect binary tree, print its nodes in specific\r\n   level order */\r\nvoid printSpecificLevelOrder(Node *root)\r\n{\r\n    if (root == NULL)\r\n        return;\r\n\r\n    // Let us print root and next level first\r\n    cout &lt;&lt; root-&gt;data;\r\n\r\n    // / Since it is perfect Binary Tree, right is not checked\r\n    if (root-&gt;left != NULL)\r\n      cout &lt;&lt; &quot; &quot; &lt;&lt; root-&gt;left-&gt;data &lt;&lt; &quot; &quot; &lt;&lt; root-&gt;right-&gt;data;\r\n\r\n    // Do anything more if there are nodes at next level in\r\n    // given perfect Binary Tree\r\n    if (root-&gt;left-&gt;left == NULL)\r\n        return;\r\n\r\n    // Create a queue and enqueue left and right children of root\r\n    queue &lt;Node *&gt; q;\r\n    q.push(root-&gt;left);\r\n    q.push(root-&gt;right);\r\n\r\n    // We process two nodes at a time, so we need two variables\r\n    // to store two front items of queue\r\n    Node *first = NULL, *second = NULL;\r\n\r\n    // traversal loop\r\n    while (!q.empty())\r\n    {\r\n       // Pop two items from queue\r\n       first = q.front();\r\n       q.pop();\r\n       second = q.front();\r\n       q.pop();\r\n\r\n       // Print children of first and second in reverse order\r\n       cout &lt;&lt; &quot; &quot; &lt;&lt; first-&gt;left-&gt;data &lt;&lt; &quot; &quot; &lt;&lt; second-&gt;right-&gt;data;\r\n       cout &lt;&lt; &quot; &quot; &lt;&lt; first-&gt;right-&gt;data &lt;&lt; &quot; &quot; &lt;&lt; second-&gt;left-&gt;data;\r\n\r\n       // If first and second have grandchildren, enqueue them\r\n       // in reverse order\r\n       if (first-&gt;left-&gt;left != NULL)\r\n       {\r\n           q.push(first-&gt;left);\r\n           q.push(second-&gt;right);\r\n           q.push(first-&gt;right);\r\n           q.push(second-&gt;left);\r\n       }\r\n    }\r\n}\r\n\r\n/* Driver program to test above functions*/\r\nint main()\r\n{\r\n    //Perfect Binary Tree of Height 4\r\n    Node *root = newNode(1);\r\n\r\n    root-&gt;left        = newNode(2);\r\n    root-&gt;right       = newNode(3);\r\n\r\n    root-&gt;left-&gt;left  = newNode(4);\r\n    root-&gt;left-&gt;right = newNode(5);\r\n    root-&gt;right-&gt;left  = newNode(6);\r\n    root-&gt;right-&gt;right = newNode(7);\r\n\r\n    root-&gt;left-&gt;left-&gt;left  = newNode(8);\r\n    root-&gt;left-&gt;left-&gt;right  = newNode(9);\r\n    root-&gt;left-&gt;right-&gt;left  = newNode(10);\r\n    root-&gt;left-&gt;right-&gt;right  = newNode(11);\r\n    root-&gt;right-&gt;left-&gt;left  = newNode(12);\r\n    root-&gt;right-&gt;left-&gt;right  = newNode(13);\r\n    root-&gt;right-&gt;right-&gt;left  = newNode(14);\r\n    root-&gt;right-&gt;right-&gt;right  = newNode(15);\r\n\r\n    root-&gt;left-&gt;left-&gt;left-&gt;left  = newNode(16);\r\n    root-&gt;left-&gt;left-&gt;left-&gt;right  = newNode(17);\r\n    root-&gt;left-&gt;left-&gt;right-&gt;left  = newNode(18);\r\n    root-&gt;left-&gt;left-&gt;right-&gt;right  = newNode(19);\r\n    root-&gt;left-&gt;right-&gt;left-&gt;left  = newNode(20);\r\n    root-&gt;left-&gt;right-&gt;left-&gt;right  = newNode(21);\r\n    root-&gt;left-&gt;right-&gt;right-&gt;left  = newNode(22);\r\n    root-&gt;left-&gt;right-&gt;right-&gt;right  = newNode(23);\r\n    root-&gt;right-&gt;left-&gt;left-&gt;left  = newNode(24);\r\n    root-&gt;right-&gt;left-&gt;left-&gt;right  = newNode(25);\r\n    root-&gt;right-&gt;left-&gt;right-&gt;left  = newNode(26);\r\n    root-&gt;right-&gt;left-&gt;right-&gt;right  = newNode(27);\r\n    root-&gt;right-&gt;right-&gt;left-&gt;left  = newNode(28);\r\n    root-&gt;right-&gt;right-&gt;left-&gt;right  = newNode(29);\r\n    root-&gt;right-&gt;right-&gt;right-&gt;left  = newNode(30);\r\n    root-&gt;right-&gt;right-&gt;right-&gt;right  = newNode(31);\r\n\r\n    cout &lt;&lt; &quot;Specific Level Order traversal of binary tree is \\n&quot;;\r\n    printSpecificLevelOrder(root);\r\n\r\n    return 0;\r\n}</pre>\n\n</div><h2 class="tabtitle">Java</h2>\n<div class="tabcontent">\n\n<pre class="brush: java; title: ; notranslate" title="">\r\n// Java program for special level order traversal\r\n \r\nimport java.util.LinkedList;\r\nimport java.util.Queue;\r\n \r\n/* Class containing left and right child of current \r\n   node and key value*/\r\nclass Node \r\n{\r\n    int data;\r\n    Node left, right;\r\n \r\n    public Node(int item) \r\n    {\r\n        data = item;\r\n        left = right = null;\r\n    }\r\n}\r\n \r\nclass BinaryTree \r\n{\r\n    Node root;\r\n \r\n    /* Given a perfect binary tree, print its nodes in specific\r\n       level order */\r\n    void printSpecificLevelOrder(Node node) \r\n    {\r\n        if (node == null)\r\n            return;\r\n \r\n        // Let us print root and next level first\r\n        System.out.print(node.data);\r\n \r\n        //  Since it is perfect Binary Tree, right is not checked\r\n        if (node.left != null)\r\n            System.out.print(&quot; &quot; + node.left.data + &quot; &quot; + node.right.data);\r\n \r\n        // Do anything more if there are nodes at next level in\r\n        // given perfect Binary Tree\r\n        if (node.left.left == null)\r\n            return;\r\n \r\n        // Create a queue and enqueue left and right children of root\r\n        Queue&lt;Node&gt; q = new LinkedList&lt;Node&gt;();\r\n        q.add(node.left);\r\n        q.add(node.right);\r\n \r\n        // We process two nodes at a time, so we need two variables\r\n        // to store two front items of queue\r\n        Node first = null, second = null;\r\n \r\n        // traversal loop\r\n        while (!q.isEmpty()) \r\n        {\r\n            // Pop two items from queue\r\n            first = q.peek();\r\n            q.remove();\r\n            second = q.peek();\r\n            q.remove();\r\n \r\n            // Print children of first and second in reverse order\r\n            System.out.print(&quot; &quot; + first.left.data + &quot; &quot; +second.right.data);\r\n            System.out.print(&quot; &quot; + first.right.data + &quot; &quot; +second.left.data);\r\n \r\n            // If first and second have grandchildren, enqueue them\r\n            // in reverse order\r\n            if (first.left.left != null) \r\n            {\r\n                q.add(first.left);\r\n                q.add(second.right);\r\n                q.add(first.right);\r\n                q.add(second.left);\r\n            }\r\n        }\r\n    }\r\n \r\n    // Driver program to test for above functions\r\n    public static void main(String args[]) \r\n    {\r\n        BinaryTree tree = new BinaryTree();\r\n        tree.root = new Node(1);\r\n        tree.root.left = new Node(2);\r\n        tree.root.right = new Node(3);\r\n \r\n        tree.root.left.left = new Node(4);\r\n        tree.root.left.right = new Node(5);\r\n        tree.root.right.left = new Node(6);\r\n        tree.root.right.right = new Node(7);\r\n \r\n        tree.root.left.left.left = new Node(8);\r\n        tree.root.left.left.right = new Node(9);\r\n        tree.root.left.right.left = new Node(10);\r\n        tree.root.left.right.right = new Node(11);\r\n        tree.root.right.left.left = new Node(12);\r\n        tree.root.right.left.right = new Node(13);\r\n        tree.root.right.right.left = new Node(14);\r\n        tree.root.right.right.right = new Node(15);\r\n \r\n        tree.root.left.left.left.left = new Node(16);\r\n        tree.root.left.left.left.right = new Node(17);\r\n        tree.root.left.left.right.left = new Node(18);\r\n        tree.root.left.left.right.right = new Node(19);\r\n        tree.root.left.right.left.left = new Node(20);\r\n        tree.root.left.right.left.right = new Node(21);\r\n        tree.root.left.right.right.left = new Node(22);\r\n        tree.root.left.right.right.right = new Node(23);\r\n        tree.root.right.left.left.left = new Node(24);\r\n        tree.root.right.left.left.right = new Node(25);\r\n        tree.root.right.left.right.left = new Node(26);\r\n        tree.root.right.left.right.right = new Node(27);\r\n        tree.root.right.right.left.left = new Node(28);\r\n        tree.root.right.right.left.right = new Node(29);\r\n        tree.root.right.right.right.left = new Node(30);\r\n        tree.root.right.right.right.right = new Node(31);\r\n \r\n        System.out.println(&quot;Specific Level Order traversal of binary&quot; \r\n                                                            +&quot;tree is &quot;);\r\n        tree.printSpecificLevelOrder(tree.root);\r\n    }\r\n}\r\n \r\n// This code has been contributed by Mayank Jaiswal\r\n\r\n</pre>\n\n</div><h2 class="tabtitle">Python</h2>\n<div class="tabcontent">\n\n<pre class="brush: python; title: ; notranslate" title="">\r\n\r\n# Python program for special order traversal \r\n\r\n# A binary tree ndoe \r\nclass Node:\r\n    # A constructor for making a new node\r\n    def __init__(self, key):\r\n        self.data = key\r\n        self.left = None\r\n        self.right = None\r\n\r\n# Given a perfect binary tree print its node in\r\n# specific order\r\ndef printSpecificLevelOrder(root):\r\n    if root is None:\r\n        return\r\n    \r\n    # Let us print root and next level first\r\n    print root.data,\r\n    \r\n    # Since it is perfect Binary tree, \r\n    # one of the node is needed to be checked\r\n    if root.left is not None :\r\n        print root.left.data,\r\n        print root.right.data,\r\n    \r\n    # Do anythong more if there are nodes at next level\r\n    # in given perfect Binary Tree\r\n    if root.left.left is None:\r\n        return\r\n\r\n    # Create a queue and enqueue left and right\r\n    # children of root\r\n    q = [] \r\n    q.append(root.left)\r\n    q.append(root.right)\r\n    \r\n    # We process two nodes at a time, so we need \r\n    # two variables to stroe two front items of queue\r\n    first = None\r\n    second = None\r\n   \r\n    # Traversal loop \r\n    while(len(q) &gt; 0):\r\n\r\n        # Pop two items from queue\r\n        first = q.pop(0)\r\n        second = q.pop(0)\r\n\r\n        # Print children of first and second in reverse order\r\n        print first.left.data,\r\n        print second.right.data,\r\n        print first.right.data,\r\n        print second.left.data,\r\n        \r\n        # If first and second have grandchildren,\r\n        # enqueue them in reverse order\r\n        if first.left.left is not None:\r\n            q.append(first.left)\r\n            q.append(second.right)\r\n            q.append(first.right)\r\n            q.append(second.left)\r\n\r\n# Driver program to test above function\r\n\r\n# Perfect Binary Tree of Height 4\r\nroot = Node(1)\r\n \r\nroot.left= Node(2)\r\nroot.right   = Node(3)\r\n \r\nroot.left.left  = Node(4)\r\nroot.left.right = Node(5)\r\nroot.right.left  = Node(6)\r\nroot.right.right = Node(7)\r\n \r\nroot.left.left.left  = Node(8)\r\nroot.left.left.right  = Node(9)\r\nroot.left.right.left  = Node(10)\r\nroot.left.right.right  = Node(11)\r\nroot.right.left.left  = Node(12)\r\nroot.right.left.right  = Node(13)\r\nroot.right.right.left  = Node(14)\r\nroot.right.right.right  = Node(15)\r\n \r\nroot.left.left.left.left  = Node(16)\r\nroot.left.left.left.right  = Node(17)\r\nroot.left.left.right.left  = Node(18)\r\nroot.left.left.right.right  = Node(19)\r\nroot.left.right.left.left  = Node(20)\r\nroot.left.right.left.right  = Node(21)\r\nroot.left.right.right.left  = Node(22)\r\nroot.left.right.right.right  = Node(23)\r\nroot.right.left.left.left  = Node(24)\r\nroot.right.left.left.right  = Node(25)\r\nroot.right.left.right.left  = Node(26)\r\nroot.right.left.right.right  = Node(27)\r\nroot.right.right.left.left  = Node(28)\r\nroot.right.right.left.right  = Node(29)\r\nroot.right.right.right.left  = Node(30)\r\nroot.right.right.right.right  = Node(31)\r\n \r\nprint &quot;Specific Level Order traversal of binary tree is&quot;\r\nprintSpecificLevelOrder(root);\r\n \r\n# This code is contributed by Nikhil Kumar Singh(nickzuck_007)\r\n\r\n</pre>\n</div></div>\n<p>Output:</p>\n<pre><font size="1">Specific Level Order traversal of binary tree is\r\n1 2 3 4 7 5 6 8 15 9 14 10 13 11 12 16 31 17 30 18 29 19 28 20 27 21 26 22 25 23 24</font></pre>\n<p><strong>Followup Questions:</strong></p>\n<ol>\n<li>The above code prints specific level order from TOP to BOTTOM. How will you do specific level order traversal from BOTTOM to TOP (<a href="http://www.geeksforgeeks.org/amazon-interview-set-120-campus-internship/" target="_blank">Amazon Interview | Set 120 &#8211; Round 1 Last Problem</a>)</li>\n<li>What if tree is not perfect, but complete.</li>\n<li>What if tree is neither perfect, nor complete. It can be any general binary tree.</li>\n</ol>\n<p>This article is contributed by <strong>Anurag Singh</strong>. Please write comments if you find anything incorrect, or you want to share more information about the topic discussed above.</p>\n\r\n\t\t\t<div class="AdsParent" style="width:100%;">\r\n<span class="rectangleAd">\r\n<!--\r\n<script async src="//pagead2.googlesyndication.com/pagead/js/adsbygoogle.js"></script>\r\n Big Rectangle Blog Bottom \r\n<ins class="adsbygoogle"\r\n     style="display:inline-block;width:336px;height:280px"\r\n     data-ad-client="ca-pub-9465609616171866"\r\n     data-ad-slot="4061219431"></ins>\r\n<script>\r\n(adsbygoogle = window.adsbygoogle || []).push({});\r\n</script>\r\n-->\r\n<script async src="//pagead2.googlesyndication.com/pagead/js/adsbygoogle.js"></script>\r\n<!-- GfGDownLeftNew -->\r\n<ins class="adsbygoogle"\r\n     style="display:block"\r\n     data-ad-client="ca-pub-9465609616171866"\r\n     data-ad-slot="5794942435"\r\n     data-ad-format="auto"></ins>\r\n<script>\r\n(adsbygoogle = window.adsbygoogle || []).push({});\r\n</script>\r\n</span>\r\n<span class="responsiveAd">\r\n<script async src="//pagead2.googlesyndication.com/pagead/js/adsbygoogle.js"></script>\r\n<!-- newMobile2 -->\r\n<ins class="adsbygoogle"\r\n     style="display:block"\r\n     data-ad-client="ca-pub-9465609616171866"\r\n     data-ad-slot="1950485631"\r\n     data-ad-format="auto"></ins>\r\n<script>\r\n(adsbygoogle = window.adsbygoogle || []).push({});\r\n</script>\r\n</span>\r\n</div>\r\n<h1><strong><a href="http://quiz.geeksforgeeks.org/gate-corner-2/">GATE CS Corner</a>\r\n&nbsp;&nbsp;&nbsp;<a href="http://practice.geeksforgeeks.org/company-tags">Company Wise Coding Practice</a></strong></h1>\r\n\r\n\t\t</div><!-- .entry-content -->\r\n\t\t\t\t\r\n\t\t\r\n\r\n\t\t<footer class="entry-meta">\r\n\t\t<span><div class="categoryButton"><a href="http://www.geeksforgeeks.org/category/data-structures/tree/" rel="category tag">Trees</a></div></span> <span></span> \r\n           \t          \t\r\n\t\t\t\t\t</footer><!-- .entry-meta -->\r\n\t</article><!-- #post -->\r\n\r\n\r\n<div style="font-size:15px; line-height:22px; margin-left:20px; color:green">\r\n\r\n<h2 style=\'font-size:20px; color: #838383\'>Recommended Posts:</h2><br/><ul>\r\n<li><a href=\'http://www.geeksforgeeks.org/convert-left-right-representation-bianry-tree-right/\'>Convert left-right representation of a binary tree to down-right</a></li><li><a href=\'http://www.geeksforgeeks.org/bottom-view-binary-tree/\'>Bottom View of a Binary Tree</a></li><li><a href=\'http://www.geeksforgeeks.org/minimum-iterations-pass-information-nodes-tree/\'>Minimum no. of iterations to pass information to all nodes in the tree</a></li><li><a href=\'http://www.geeksforgeeks.org/check-whether-binary-tree-full-binary-tree-not/\'>Check whether a binary tree is a full binary tree or not</a></li><li><a href=\'http://www.geeksforgeeks.org/check-if-a-given-binary-tree-is-sumtree/\'>Check if a given Binary Tree is SumTree</a></li>\r\n</ul><br/></div>\r\n\r\n\r\n<!-- Added on 29 Oct 2015 for next and previous from same category -->\r\n<nav class="nav-single">\r\n\t\t\t\t\t<div class="assistive-text">Post navigation</div>\r\n\t\t\t\t\t<span class="nav-previous"><a href="http://www.geeksforgeeks.org/print-nodes-top-view-binary-tree/" rel="prev"><< Previous Post</a></span>\r\n\t\t\t\t\t<span class="nav-next"><a href="http://www.geeksforgeeks.org/bottom-view-binary-tree/" rel="next">Next Post >></a></span>\r\n\t\t\t\t</nav><!-- .nav-single -->\r\n<!--\r\n<script type="text/javascript">\r\n\t\r\n\t\t\t\tarrPost.push(\'\');\r\n\t\r\n\t\t   <?php// } ?>\r\n\r\n</script>\r\n-->\r\n\r\n\r\n\r\n<div class="plugins">\r\n<div pid="132437" ptitle="Perfect Binary Tree Specific Level Order Traversal" id="ratePlugin"></div>\r\n<div pid="132437" ptitle="Perfect Binary Tree Specific Level Order Traversal" id="markPlugin"></div>\r\n</div>\r\n<div id="author" name="Anurag Singh"></div>\r\n<br></br>\r\n\r\n<style type="text/css">\r\n \r\n#share-buttons img {\r\nwidth: 35px;\r\npadding: 5px;\r\nborder: 0;\r\nbox-shadow: 0;\r\ndisplay: inline;\r\n}\r\n#share-buttons a:hover {\r\n\ttext-decoration: none;\r\n}\r\n</style>\r\n\r\n\r\n<div id="share-buttons" style="display:none">\r\n   \r\n    <!-- Facebook -->\r\n    <a href="http://www.facebook.com/sharer.php?u=http://www.geeksforgeeks.org/perfect-binary-tree-specific-level-order-traversal/" target="_blank" title="Share on Facebook">\r\n        <img src="http://www.geeksforgeeks.org/wp-content/uploads/facebook.png" alt="Facebook" />\r\n    </a>\r\n    \r\n    <!-- Google+ -->\r\n    <a href="https://plus.google.com/share?url=http://www.geeksforgeeks.org/perfect-binary-tree-specific-level-order-traversal/" target="_blank" title="Share on Google">\r\n        <img src="http://www.geeksforgeeks.org/wp-content/uploads/google.png" alt="Google" />\r\n    </a>\r\n    \r\n    <!-- LinkedIn -->\r\n    <a href="http://www.linkedin.com/shareArticle?mini=true&amp;url=http://www.geeksforgeeks.org/perfect-binary-tree-specific-level-order-traversal/" target="_blank" title="Share on LinkedIn">\r\n        <img src="http://www.geeksforgeeks.org/wp-content/uploads/linkedin.png" alt="LinkedIn" />\r\n    </a>\r\n    \r\n    <!-- Twitter -->\r\n    <a href="https://twitter.com/share?url=http://www.geeksforgeeks.org/perfect-binary-tree-specific-level-order-traversal/&amp;text=Perfect Binary Tree Specific Level Order Traversal&amp;hashtags=GeeksforGeeks" target="_blank" title="Share on Twitter">\r\n        <img src="http://www.geeksforgeeks.org/wp-content/uploads/twitter.png" alt="Twitter" />\r\n    </a>\r\n\r\n    <!-- Pinterest -->\r\n    <a href="javascript:void((function()%7Bvar%20e=document.createElement(\'script\');e.setAttribute(\'type\',\'text/javascript\');e.setAttribute(\'charset\',\'UTF-8\');e.setAttribute(\'src\',\'http://assets.pinterest.com/js/pinmarklet.js?r=\'+Math.random()*99999999);document.body.appendChild(e)%7D)());" title="Share on Pinterest">\r\n        <img src="http://www.geeksforgeeks.org/wp-content/uploads/pinterest.png" alt="Pinterest" />\r\n    </a>\r\n    \r\n    <!-- Reddit -->\r\n    <a href="http://reddit.com/submit?url=http://www.geeksforgeeks.org/perfect-binary-tree-specific-level-order-traversal/&amp;title=Perfect Binary Tree Specific Level Order Traversal" target="_blank" title="Share on Reddit">\r\n        <img src="http://www.geeksforgeeks.org/wp-content/uploads/reddit.png" alt="Reddit" />\r\n    </a>\r\n    \r\n    <!-- StumbleUpon-->\r\n    <a href="http://www.stumbleupon.com/submit?url=http://www.geeksforgeeks.org/perfect-binary-tree-specific-level-order-traversal/&amp;title=Perfect Binary Tree Specific Level Order Traversal" target="_blank" title="Share on StumbleUpon">\r\n        <img src="http://www.geeksforgeeks.org/wp-content/uploads/stumbleupon.png" alt="StumbleUpon" />\r\n    </a>\r\n    \r\n    <!-- Tumblr-->\r\n    <a href="http://www.tumblr.com/share/link?url=http://www.geeksforgeeks.org/perfect-binary-tree-specific-level-order-traversal/&amp;title=Perfect Binary Tree Specific Level Order Traversal" target="_blank" title="Share on Tumblr">\r\n        <img src="http://www.geeksforgeeks.org/wp-content/uploads/tumblr.png" alt="Tumblr" />\r\n    </a>\r\n   \r\n</div>\r\n\r\n<br></br>\r\n<p>Writing code in comment? Please use <a href="http://ide.geeksforgeeks.org/">ide.geeksforgeeks.org</a>, generate link and share the link here.</a></p>\r\n<br/>\r\n<div style="display:flex">\r\n<button id="comment" class="action-button" style="width:45%;cursor: pointer;margin-right:10%;box-shadow: 0 2px 5px 0 rgba(0,0,0,0.4), 0 6px 20px 0 rgba(0,0,0,0);border-color: #4cb96b;border-radius: 4px;">Load Comments</button>\r\n<button id="share" class="action-button" onclick="document.getElementById(\'share-buttons\').style.display=\'block\';this.style.display=\'none\';" style="width:45%;cursor: pointer;margin-right:10%;box-shadow: 0 2px 5px 0 rgba(0,0,0,0.4), 0 6px 20px 0 rgba(0,0,0,0);border-color: #4cb96b;border-radius: 4px;">Share this post!</button>\r\n\r\n</div>\r\n\r\n<div id="disqus_thread"></div>\r\n\r\n\t\t\t\t\t</div><!-- #content -->\r\n\t</div><!-- #primary -->\r\n\r\n\r\n\t\t\t<div id="secondary" class="widget-area" role="complementary">\r\n\t\t\t<aside id="text-33" class="widget widget_text">\t\t\t<div class="textwidget"><script async src="//pagead2.googlesyndication.com/pagead/js/adsbygoogle.js"></script>\r\n<!-- Big 300x600 Sidebar -->\r\n<ins class="adsbygoogle"\r\n     style="display:inline-block;width:300px;height:600px"\r\n     data-ad-client="ca-pub-9465609616171866"\r\n     data-ad-slot="4402736037"></ins>\r\n<script>\r\n(adsbygoogle = window.adsbygoogle || []).push({});\r\n</script></div>\n\t\t</aside><aside id="text-40" class="widget widget_text">\t\t\t<div class="textwidget"><div class="trendings_gfg_hc">\r\n    <table align="center" width="100%">\r\n        <thead>\r\n            <tr>\r\n                <th style="border:1px solid #6AA84F;background-color:#4CB96B;color:#fff;text-align: center;font-size: 16px;">Trending Content</th>\r\n            </tr>\r\n        </thead>\r\n        <tbody>\r\n        \t        \t  \t\t<tr>\r\n\t\t\t                <td style="border:1px solid #6AA84F;padding:2px;">\r\n\t\t\t                    <a href=\'http://www.geeksforgeeks.org/converting-string-to-number-and-vice-versa-in-c/\'>Converting string to number and vice-versa in C++</a>\t\t\t                </td>\r\n\t\t\t            </tr>\r\n        \t        \t  \t\t<tr>\r\n\t\t\t                <td style="border:1px solid #6AA84F;padding:2px;">\r\n\t\t\t                    <a href=\'http://www.geeksforgeeks.org/java-io-stringwriter-class-in-java/\'>Java.io.StringWriter class in Java</a>\t\t\t                </td>\r\n\t\t\t            </tr>\r\n        \t        \t  \t\t<tr>\r\n\t\t\t                <td style="border:1px solid #6AA84F;padding:2px;">\r\n\t\t\t                    <a href=\'http://www.geeksforgeeks.org/z-algorithm-linear-time-pattern-searching-algorithm/\'>Z algorithm (Linear time pattern searching Algorithm)</a>\t\t\t                </td>\r\n\t\t\t            </tr>\r\n        \t        \t  \t\t<tr>\r\n\t\t\t                <td style="border:1px solid #6AA84F;padding:2px;">\r\n\t\t\t                    <a href=\'http://www.geeksforgeeks.org/amazon-interview-experience-set-161-off-campus-sde-1-banglore/\'>Amazon Interview Experience | Set 161 (Off Campus for SDE-1, Banglore)</a>\t\t\t                </td>\r\n\t\t\t            </tr>\r\n        \t        \t  \t\t<tr>\r\n\t\t\t                <td style="border:1px solid #6AA84F;padding:2px;">\r\n\t\t\t                    <a href=\'http://www.geeksforgeeks.org/c-c-quiz-103-question-5/\'>C Quiz &#8211; 103 | Question 5</a>\t\t\t                </td>\r\n\t\t\t            </tr>\r\n        \t        \t  \t\t<tr>\r\n\t\t\t                <td style="border:1px solid #6AA84F;padding:2px;">\r\n\t\t\t                    <a href=\'http://www.geeksforgeeks.org/myntra-interview-experience-set-5/\'>Myntra Interview Experience | Set 5</a>\t\t\t                </td>\r\n\t\t\t            </tr>\r\n        \t        \t  \t\t<tr>\r\n\t\t\t                <td style="border:1px solid #6AA84F;padding:2px;">\r\n\t\t\t                    <a href=\'http://www.geeksforgeeks.org/jagged-array-in-java/\'>Jagged Array in Java</a>\t\t\t                </td>\r\n\t\t\t            </tr>\r\n        \t        \t  \t\t<tr>\r\n\t\t\t                <td style="border:1px solid #6AA84F;padding:2px;">\r\n\t\t\t                    <a href=\'http://www.geeksforgeeks.org/singleton-design-pattern/\'>Singleton Design Pattern | Implementation</a>\t\t\t                </td>\r\n\t\t\t            </tr>\r\n        \t        \t  \t\t<tr>\r\n\t\t\t                <td style="border:1px solid #6AA84F;padding:2px;">\r\n\t\t\t                    <a href=\'http://www.geeksforgeeks.org/bitonic-sort/\'>Bitonic Sort</a>\t\t\t                </td>\r\n\t\t\t            </tr>\r\n        \t        \t  \t\t<tr>\r\n\t\t\t                <td style="border:1px solid #6AA84F;padding:2px;">\r\n\t\t\t                    <a href=\'http://www.geeksforgeeks.org/bottom-view-binary-tree/\'>Bottom View of a Binary Tree</a>\t\t\t                </td>\r\n\t\t\t            </tr>\r\n        \t        </tbody>\r\n    </table>\r\n</div>\r\n\r\n</div>\n\t\t</aside><aside id="text-41" class="widget widget_text">\t\t\t<div class="textwidget"><a href="http://www.geeksforgeeks.org/progeek-cup-1-0-project-competition-geeksforgeeks/" style="margin-right: 0px !important;">\r\n  <center>\r\n    <input type="button" value="ProGeek Cup 1.0" style="background-color: #4cb96b; color:white; width:100%; font-size:large; cursor:pointer;font-weight:bold;">\r\n  </center>\r\n</a></div>\n\t\t</aside><aside id="text-18" class="widget widget_text">\t\t\t<div class="textwidget"><script async src="//pagead2.googlesyndication.com/pagead/js/adsbygoogle.js"></script>\r\n<!-- ResponsiveRightBarMay16 -->\r\n<ins class="adsbygoogle"\r\n     style="display:block"\r\n     data-ad-client="ca-pub-9465609616171866"\r\n     data-ad-slot="7089558833"\r\n     data-ad-format="auto"></ins>\r\n<script>\r\n(adsbygoogle = window.adsbygoogle || []).push({});\r\n</script></div>\n\t\t</aside><aside id="text-14" class="widget widget_text">\t\t\t<div class="textwidget"><table align="center" width="100%">\r\n    <thead>\r\n        <tr>\r\n            <th style="border:1px solid #6AA84F;background-color:#4CB96B;color:#fff;text-align: center;font-size: 16px;line-height:1.7;">\r\n                Most Visited Posts\r\n            </th>\r\n        </tr>\r\n    </thead>\r\n    <tbody>\r\n        <tr>\r\n            <td style="border:1px solid #6AA84F;padding:2px;line-height:1.7;font-size:13px;">\r\n                <a href="http://www.geeksforgeeks.org/top-algorithms-and-data-structures-for-competitive-programming/">Top 10 Algorithms and Data Structures for Competitive Programming</a>\r\n            </td>\r\n        </tr>\r\n        <tr>\r\n            <td style="border:1px solid #6AA84F;padding:2px;line-height:1.7;font-size:13px;">\r\n                <a href="http://www.geeksforgeeks.org/top-10-algorithms-in-interview-questions/">Top 10 algorithms in Interview Questions</a>\r\n            </td>\r\n        </tr>\r\n        <tr>\r\n            <td style="border:1px solid #6AA84F;padding:2px;line-height:1.7;font-size:13px;">\r\n                <a href="http://www.geeksforgeeks.org/how-to-begin-with-competitive-programming/">How to begin with Competitive Programming?</a>\r\n            </td>\r\n        </tr>\r\n        <tr>\r\n            <td style="border:1px solid #6AA84F;padding:2px;line-height:1.7;font-size:13px;">\r\n                <a href="http://www.geeksforgeeks.org/a-complete-step-by-step-guide-for-placement-preparation-by-geeksforgeeks/">Step by Step Guide for Placement Preparation</a>\r\n            </td>\r\n        </tr>\r\n        <tr>\r\n            <td style="border:1px solid #6AA84F;padding:2px;line-height:1.7;font-size:13px;">\r\n                <a href="http://www.geeksforgeeks.org/how-to-prepare-for-acm-icpc/">How to prepare for ACM-ICPC?</a>\r\n            </td>\r\n        </tr>\r\n        <tr>\r\n            <td style="border:1px solid #6AA84F;padding:2px;line-height:1.7;font-size:13px;">\r\n                <a href="http://quiz.geeksforgeeks.org/insertion-sort/">Insertion Sort</a>,\r\n                <a href="http://geeksquiz.com/binary-search/">Binary Search</a>,\r\n                <a href="http://geeksquiz.com/quick-sort/">QuickSort</a>,\r\n                <a href="http://geeksquiz.com/merge-sort/">MergeSort</a>,\r\n                <a href="http://geeksquiz.com/heap-sort/">HeapSort</a>\r\n            </td>\r\n        </tr>\r\n    </tbody>\r\n</table></div>\n\t\t</aside><aside id="text-36" class="widget widget_text">\t\t\t<div class="textwidget"><script async src="//pagead2.googlesyndication.com/pagead/js/adsbygoogle.js"></script>\r\n<!-- GfGSideBottomResponsive -->\r\n<ins class="adsbygoogle"\r\n     style="display:block"\r\n     data-ad-client="ca-pub-9465609616171866"\r\n     data-ad-slot="5749413230"\r\n     data-ad-format="auto"></ins>\r\n<script>\r\n(adsbygoogle = window.adsbygoogle || []).push({});\r\n</script></div>\n\t\t</aside><aside id="text-42" class="widget widget_text">\t\t\t<div class="textwidget"><!-- BuySellAds Zone Code -->\r\n<div id="bsap_1306934" class="bsarocks bsap_785bf45b162de1c5511e8baa02854e5c"></div>\r\n<!-- End BuySellAds Zone Code --></div>\n\t\t</aside><aside id="text-13" class="widget widget_text">\t\t\t<div class="textwidget"><table align="center" width="100%">\r\n    <thead>\r\n        <tr>\r\n            <th style="border:1px solid #6AA84F;background-color:#4CB96B;color:#fff;text-align: center;font-size: 16px;line-height:1.7;">\r\n                Popular Categories\r\n            </th>\r\n        </tr>\r\n    </thead>\r\n    <tbody>\r\n\r\n        <tr>\r\n            <td style="border:1px solid #6AA84F;padding:2px;line-height:1.7;font-size:13px;">\r\n                <a href="http://www.geeksforgeeks.org/category/interview-experiences/">Interview Experiences</a>\r\n            </td>\r\n        </tr>\r\n        <tr>\r\n            <td style="border:1px solid #6AA84F;padding:2px;line-height:1.7;font-size:13px;">\r\n                <a href="http://www.geeksforgeeks.org/advanced-data-structures/">Advanced Data Structures</a>\r\n            </td>\r\n        </tr>\r\n\r\n        <tr>\r\n            <td style="border:1px solid #6AA84F;padding:2px;line-height:1.7;font-size:13px;">\r\n                <a href="http://www.geeksforgeeks.org/dynamic-programming/">Dynamic Programming</a>\r\n            </td>\r\n        </tr>\r\n        <tr>\r\n            <td style="border:1px solid #6AA84F;padding:2px;line-height:1.7;font-size:13px;">\r\n                <a href="http://www.geeksforgeeks.org/category/greedy/">Greedy Algorithms</a>\r\n            </td>\r\n        </tr>\r\n        <tr>\r\n            <td style="border:1px solid #6AA84F;padding:2px;line-height:1.7;font-size:13px;">\r\n                <a href="http://www.geeksforgeeks.org/category/backtracking/">Backtracking</a>\r\n            </td>\r\n        </tr>\r\n        <tr>\r\n            <td style="border:1px solid #6AA84F;padding:2px;line-height:1.7;font-size:13px;">\r\n                <a href="http://www.geeksforgeeks.org/category/pattern-searching/">Pattern Searching</a>\r\n            </td>\r\n        </tr>\r\n        <tr>\r\n            <td style="border:1px solid #6AA84F;padding:2px;line-height:1.7;font-size:13px;">\r\n                <a href="http://www.geeksforgeeks.org/category/divide-and-conquer/">Divide &amp; Conquer</a>\r\n            </td>\r\n        </tr>\r\n        <tr>\r\n            <td style="border:1px solid #6AA84F;padding:2px;line-height:1.7;font-size:13px;">\r\n                <a href="http://www.geeksforgeeks.org/category/algorithm/geometric/">Geometric Algorithms</a>\r\n            </td>\r\n        </tr>\r\n        <tr>\r\n            <td style="border:1px solid #6AA84F;padding:2px;line-height:1.7;font-size:13px;">\r\n                <a href="http://www.geeksforgeeks.org/category/searching/">Searching</a>\r\n            </td>\r\n        </tr>\r\n        <tr>\r\n            <td style="border:1px solid #6AA84F;padding:2px;line-height:1.7;font-size:13px;">\r\n                <a href="http://www.geeksforgeeks.org/category/sorting/">Sorting</a>\r\n            </td>\r\n        </tr>\r\n        <tr>\r\n            <td style="border:1px solid #6AA84F;padding:2px;line-height:1.7;font-size:13px;">\r\n                <a href="http://www.geeksforgeeks.org/category/algorithm/analysis/">Analysis of Algorithms</a>\r\n            </td>\r\n        </tr>\r\n        <tr>\r\n            <td style="border:1px solid #6AA84F;padding:2px;line-height:1.7;font-size:13px;">\r\n                <a href="http://www.geeksforgeeks.org/category/algorithm/mathematical/">Mathematical Algorithms</a>\r\n            </td>\r\n        </tr>\r\n        <tr>\r\n            <td style="border:1px solid #6AA84F;padding:2px;line-height:1.7;font-size:13px;">\r\n                <a href="http://www.geeksforgeeks.org/category/algorithm/randomized/">Randomized Algorithms</a>\r\n            </td>\r\n        </tr>\r\n        <tr>\r\n            <td style="border:1px solid #6AA84F;padding:2px;line-height:1.7;font-size:13px;">\r\n                <a href="http://www.geeksforgeeks.org/tag/recursion">Recursion</a>\r\n            </td>\r\n        </tr>\r\n        <tr>\r\n            <td style="border:1px solid #6AA84F;padding:2px;line-height:1.7;font-size:13px;">\r\n                <a href="http://www.geeksforgeeks.org/category/algorithm/game-theory/">Game Theory</a>\r\n            </td>\r\n        </tr>\r\n\r\n    </tbody>\r\n</table></div>\n\t\t</aside><aside id="tag_cloud-3" class="widget widget_tag_cloud"><p class="widget-title">Tags</p><div class="tagcloud"><a href=\'http://www.geeksforgeeks.org/category/advanced-data-structure/\' class=\'tag-link-1762 tag-link-position-1\' title=\'139 topics\' style=\'font-size: 10.947368421053pt;\'>Advanced Data Structure</a>\n<a href=\'http://www.geeksforgeeks.org/tag/amazon/\' class=\'tag-link-1942 tag-link-position-2\' title=\'391 topics\' style=\'font-size: 15.578947368421pt;\'>Amazon</a>\n<a href=\'http://www.geeksforgeeks.org/category/quizzes-gq/aptitude-gq/\' class=\'tag-link-2200 tag-link-position-3\' title=\'202 topics\' style=\'font-size: 12.631578947368pt;\'>Aptitude</a>\n<a href=\'http://www.geeksforgeeks.org/tag/aptitude/\' class=\'tag-link-2159 tag-link-position-4\' title=\'202 topics\' style=\'font-size: 12.631578947368pt;\'>Aptitude</a>\n<a href=\'http://www.geeksforgeeks.org/category/data-structures/c-arrays/\' class=\'tag-link-3 tag-link-position-5\' title=\'362 topics\' style=\'font-size: 15.263157894737pt;\'>Arrays</a>\n<a href=\'http://www.geeksforgeeks.org/category/algorithm/bit-magic/\' class=\'tag-link-17 tag-link-position-6\' title=\'135 topics\' style=\'font-size: 10.736842105263pt;\'>Bit Magic</a>\n<a href=\'http://www.geeksforgeeks.org/category/programming-language/c/\' class=\'tag-link-2064 tag-link-position-7\' title=\'461 topics\' style=\'font-size: 16.315789473684pt;\'>C</a>\n<a href=\'http://www.geeksforgeeks.org/tag/c/\' class=\'tag-link-2138 tag-link-position-8\' title=\'399 topics\' style=\'font-size: 15.684210526316pt;\'>C</a>\n<a href=\'http://www.geeksforgeeks.org/category/programming-language/cpp/\' class=\'tag-link-2065 tag-link-position-9\' title=\'481 topics\' style=\'font-size: 16.526315789474pt;\'>C++</a>\n<a href=\'http://www.geeksforgeeks.org/category/quizzes-gq/computer-science-quizzes-gq/cpp-gq/\' class=\'tag-link-2207 tag-link-position-10\' title=\'130 topics\' style=\'font-size: 10.631578947368pt;\'>C++ Quiz</a>\n<a href=\'http://www.geeksforgeeks.org/tag/cpp-library/\' class=\'tag-link-1964 tag-link-position-11\' title=\'85 topics\' style=\'font-size: 8.6315789473684pt;\'>CPP-Library</a>\n<a href=\'http://www.geeksforgeeks.org/category/quizzes-gq/computer-science-quizzes-gq/c-gq/\' class=\'tag-link-2206 tag-link-position-12\' title=\'274 topics\' style=\'font-size: 14pt;\'>C Quiz</a>\n<a href=\'http://www.geeksforgeeks.org/tag/data-structures/\' class=\'tag-link-2142 tag-link-position-13\' title=\'129 topics\' style=\'font-size: 10.526315789474pt;\'>Data Structures</a>\n<a href=\'http://www.geeksforgeeks.org/category/quizzes-gq/computer-science-quizzes-gq/data-structures-gate-gq/\' class=\'tag-link-2213 tag-link-position-14\' title=\'129 topics\' style=\'font-size: 10.526315789474pt;\'>Data Structures</a>\n<a href=\'http://www.geeksforgeeks.org/category/computer-subject/dbms/\' class=\'tag-link-2053 tag-link-position-15\' title=\'92 topics\' style=\'font-size: 9.0526315789474pt;\'>DBMS</a>\n<a href=\'http://www.geeksforgeeks.org/category/algorithm/dynamic-programming/\' class=\'tag-link-1746 tag-link-position-16\' title=\'221 topics\' style=\'font-size: 13.052631578947pt;\'>Dynamic Programming</a>\n<a href=\'http://www.geeksforgeeks.org/category/interview-experiences/experienced-interview-experiences/\' class=\'tag-link-1795 tag-link-position-17\' title=\'100 topics\' style=\'font-size: 9.3684210526316pt;\'>Experienced</a>\n<a href=\'http://www.geeksforgeeks.org/tag/gate-cs-2012/\' class=\'tag-link-133 tag-link-position-18\' title=\'75 topics\' style=\'font-size: 8.1052631578947pt;\'>GATE-CS-2012</a>\n<a href=\'http://www.geeksforgeeks.org/category/guestblogs/\' class=\'tag-link-1710 tag-link-position-19\' title=\'185 topics\' style=\'font-size: 12.210526315789pt;\'>GBlog</a>\n<a href=\'http://www.geeksforgeeks.org/category/data-structures/graph/\' class=\'tag-link-2068 tag-link-position-20\' title=\'155 topics\' style=\'font-size: 11.368421052632pt;\'>Graph</a>\n<a href=\'http://www.geeksforgeeks.org/category/data-structures/hash/\' class=\'tag-link-1756 tag-link-position-21\' title=\'96 topics\' style=\'font-size: 9.2631578947368pt;\'>Hash</a>\n<a href=\'http://www.geeksforgeeks.org/category/interview-experiences/internship-interview-experiences/\' class=\'tag-link-1794 tag-link-position-22\' title=\'105 topics\' style=\'font-size: 9.6842105263158pt;\'>Internship</a>\n<a href=\'http://www.geeksforgeeks.org/category/interview-experiences/\' class=\'tag-link-1140 tag-link-position-23\' title=\'1,580 topics\' style=\'font-size: 22pt;\'>Interview Experiences</a>\n<a href=\'http://www.geeksforgeeks.org/category/programming-language/java/\' class=\'tag-link-2058 tag-link-position-24\' title=\'552 topics\' style=\'font-size: 17.157894736842pt;\'>Java</a>\n<a href=\'http://www.geeksforgeeks.org/tag/java/\' class=\'tag-link-2082 tag-link-position-25\' title=\'73 topics\' style=\'font-size: 8pt;\'>java-</a>\n<a href=\'http://www.geeksforgeeks.org/category/quizzes-gq/computer-science-quizzes-gq/java-gq/\' class=\'tag-link-2208 tag-link-position-26\' title=\'73 topics\' style=\'font-size: 8pt;\'>Java Quiz</a>\n<a href=\'http://www.geeksforgeeks.org/category/data-structures/linked-list/\' class=\'tag-link-8 tag-link-position-27\' title=\'141 topics\' style=\'font-size: 10.947368421053pt;\'>Linked Lists</a>\n<a href=\'http://www.geeksforgeeks.org/category/algorithm/mathematical/\' class=\'tag-link-1753 tag-link-position-28\' title=\'464 topics\' style=\'font-size: 16.421052631579pt;\'>Mathematical</a>\n<a href=\'http://www.geeksforgeeks.org/category/data-structures/matrix/\' class=\'tag-link-1760 tag-link-position-29\' title=\'144 topics\' style=\'font-size: 11.052631578947pt;\'>Matrix</a>\n<a href=\'http://www.geeksforgeeks.org/category/multiple-choice-question/\' class=\'tag-link-66 tag-link-position-30\' title=\'96 topics\' style=\'font-size: 9.2631578947368pt;\'>MCQ</a>\n<a href=\'http://www.geeksforgeeks.org/tag/microsoft/\' class=\'tag-link-104 tag-link-position-31\' title=\'139 topics\' style=\'font-size: 10.947368421053pt;\'>Microsoft</a>\n<a href=\'http://www.geeksforgeeks.org/tag/number-digits/\' class=\'tag-link-1911 tag-link-position-32\' title=\'78 topics\' style=\'font-size: 8.3157894736842pt;\'>number-digits</a>\n<a href=\'http://www.geeksforgeeks.org/category/program-output/\' class=\'tag-link-5 tag-link-position-33\' title=\'112 topics\' style=\'font-size: 9.8947368421053pt;\'>Program Output</a>\n<a href=\'http://www.geeksforgeeks.org/category/project/\' class=\'tag-link-1767 tag-link-position-34\' title=\'85 topics\' style=\'font-size: 8.6315789473684pt;\'>Project</a>\n<a href=\'http://www.geeksforgeeks.org/category/puzzles/\' class=\'tag-link-2063 tag-link-position-35\' title=\'102 topics\' style=\'font-size: 9.4736842105263pt;\'>Puzzles</a>\n<a href=\'http://www.geeksforgeeks.org/category/programming-language/python/\' class=\'tag-link-1789 tag-link-position-36\' title=\'247 topics\' style=\'font-size: 13.473684210526pt;\'>Python</a>\n<a href=\'http://www.geeksforgeeks.org/category/quizzes-gq/qa-placement-quizzes-gq/\' class=\'tag-link-2204 tag-link-position-37\' title=\'274 topics\' style=\'font-size: 14pt;\'>QA - Placement Quizzes</a>\n<a href=\'http://www.geeksforgeeks.org/tag/qa-placement-quizzes/\' class=\'tag-link-2187 tag-link-position-38\' title=\'274 topics\' style=\'font-size: 14pt;\'>QA - Placement Quizzes</a>\n<a href=\'http://www.geeksforgeeks.org/category/school-programming/\' class=\'tag-link-2078 tag-link-position-39\' title=\'224 topics\' style=\'font-size: 13.052631578947pt;\'>School Programming</a>\n<a href=\'http://www.geeksforgeeks.org/category/algorithm/searching/\' class=\'tag-link-1751 tag-link-position-40\' title=\'81 topics\' style=\'font-size: 8.4210526315789pt;\'>Searching</a>\n<a href=\'http://www.geeksforgeeks.org/category/algorithm/sorting/\' class=\'tag-link-1752 tag-link-position-41\' title=\'167 topics\' style=\'font-size: 11.789473684211pt;\'>Sorting</a>\n<a href=\'http://www.geeksforgeeks.org/tag/stl/\' class=\'tag-link-1797 tag-link-position-42\' title=\'129 topics\' style=\'font-size: 10.526315789474pt;\'>STL</a>\n<a href=\'http://www.geeksforgeeks.org/category/data-structures/c-strings/\' class=\'tag-link-7 tag-link-position-43\' title=\'287 topics\' style=\'font-size: 14.210526315789pt;\'>Strings</a>\n<a href=\'http://www.geeksforgeeks.org/category/technical-scripter/\' class=\'tag-link-1788 tag-link-position-44\' title=\'85 topics\' style=\'font-size: 8.6315789473684pt;\'>Technical Scripter</a>\n<a href=\'http://www.geeksforgeeks.org/category/data-structures/tree/\' class=\'tag-link-19 tag-link-position-45\' title=\'224 topics\' style=\'font-size: 13.052631578947pt;\'>Trees</a></div>\n</aside><aside id="text-43" class="widget widget_text">\t\t\t<div class="textwidget"><!-- BuySellAds Zone Code -->\r\n<div id="bsap_1304848" class="bsarocks bsap_785bf45b162de1c5511e8baa02854e5c"></div>\r\n<!-- End BuySellAds Zone Code --></div>\n\t\t</aside><aside id="text-32" class="widget widget_text">\t\t\t<div class="textwidget"><a href="http://www.geeksforgeeks.org/recent-comments/" style="margin-right: 0px !important;">\r\n  <center>\r\n    <input type="button" value="Recent Comments" style="background-color: #4cb96b; color:white; width:100%; font-size:large; cursor:pointer;font-weight:bold;">\r\n  </center>\r\n</a></div>\n\t\t</aside>\t\t</div><!-- #secondary -->\r\n\t\t</div><!-- #main .wrapper -->\r\n\t<footer id="colophon" role="contentinfo" style="padding:0; ">\r\n\t\t<div class="site-info">\r\n\t\t<div class="clear"></div>\r\n\t\t</div><!-- .site-info -->\r\n\t\t</footer><!-- #colophon -->\r\n<center>\r\n  <div class="iconic-footer" style="min-height:40px;font-size:14px;padding-bottom: 0px;line-height: 1.5;">\r\n    @geeksforgeeks, \r\n    <a href="http://creativecommons.org/licenses/by-nc-nd/2.5/in/deed.en_US" title="Valid XHTML Strict 1.0">Some rights reserved</a><a href="http://www.geeksforgeeks.org/about/contact-us/"> &nbsp; &nbsp; &nbsp; &nbsp;Contact Us!</a>\r\n    <a href="http://www.geeksforgeeks.org/about/"> &nbsp; &nbsp; &nbsp; &nbsp;About Us!&nbsp; &nbsp; &nbsp;</a>\r\n    <a href="http://www.geeksforgeeks.org/advertise-with-us/"> &nbsp; &nbsp; &nbsp;Advertise with us!&nbsp; &nbsp; </a>\r\n    <a href="http://www.geeksforgeeks.org/privacy-policy/">&nbsp; &nbsp; &nbsp; Privacy Policy&nbsp; &nbsp;&nbsp; </a>\r\n    <!-- adding social buttons on 07 April, 2017 -->\r\n    <a href="https://www.facebook.com/GeeksforGeeks-316764689022/timeline/" style="display: inline-block;margin-left: 10px;border:1px solid #fff;border-radius: 2px;" title="facebook">\r\n      <img src="http://www.geeksforgeeks.org/wp-content/uploads/square_facebook_green.png" style="width:30px;vertical-align: middle;" />\r\n    </a>\r\n    <a href="https://twitter.com/geeksforgeeks" style="display: inline-block;margin-left: 10px;border:1px solid #fff;border-radius: 2px;" title="twitter">\r\n      <img src="http://www.geeksforgeeks.org/wp-content/uploads/square_twitter_green.png" style="width:30px;vertical-align: middle;" />\r\n    </a>\r\n    <a href="https://www.linkedin.com/company-beta/1299009" style="display: inline-block;margin-left: 10px;border:1px solid #fff;border-radius: 2px;" title="linkedin">\r\n      <img src="http://www.geeksforgeeks.org/wp-content/uploads/square_linkedin_green.png" style="width:30px;vertical-align: middle;" />\r\n    </a>\r\n    <a href="https://play.google.com/store/apps/details?id=free.programming.programming" style="display: inline-block;margin-left: 10px;border:1px solid #fff;border-radius: 2px;" title="play store">\r\n      <img src="http://www.geeksforgeeks.org/wp-content/uploads/square_play_store_green.png" style="width:30px;vertical-align: middle;" />\r\n    </a>\r\n    <a href="https://www.microsoft.com/en-us/store/apps/geeksforgeeks-official/9nblggh4rh30" style="display: inline-block;margin-left: 10px;border:1px solid #fff;border-radius: 2px;" title="windows store">\r\n      <img src="http://www.geeksforgeeks.org/wp-content/uploads/square_windows_store_green.png" style="width:30px;vertical-align: middle;" />\r\n    </a>\r\n    <a href="https://itunes.apple.com/us/app/geeksforgeeks/id1101205459?ls=1&mt=8" style="display: inline-block;margin-left: 10px;border:1px solid #fff;border-radius: 2px;" title="app store">\r\n      <img src="http://www.geeksforgeeks.org/wp-content/uploads/square_app_store_green.png" style="width:30px;vertical-align: middle;" />\r\n    </a>\r\n  </div>\r\n</center><!-- .site-info -->\r\n\r\n\t\t\t\t<div class="clear"></div>\r\n</div><!-- #page -->\r\n\r\n<script type=\'text/javascript\' src=\'http://www.geeksforgeeks.org/wp-content/plugins/syntaxhighlighter/syntaxhighlighter3/scripts/shCore-1.0.js\'></script>\n<script type=\'text/javascript\' src=\'http://www.geeksforgeeks.org/wp-content/plugins/syntaxhighlighter/syntaxhighlighter3/scripts/shBrushCpp.js\'></script>\n<script type=\'text/javascript\' src=\'http://www.geeksforgeeks.org/wp-content/plugins/syntaxhighlighter/syntaxhighlighter3/scripts/shBrushJava.js\'></script>\n<script type=\'text/javascript\' src=\'http://www.geeksforgeeks.org/wp-content/plugins/syntaxhighlighter/syntaxhighlighter3/scripts/shBrushPython.js\'></script>\n<script type=\'text/javascript\'>\n\t(function(){\n\t\tvar corecss = document.createElement(\'link\');\n\t\tvar themecss = document.createElement(\'link\');\n\t\tvar corecssurl = "http://www.geeksforgeeks.org/wp-content/plugins/syntaxhighlighter/syntaxhighlighter3/styles/shCore.css?ver=3.0.9b";\r\n\t\tif ( corecss.setAttribute ) {\r\n\t\t\t\tcorecss.setAttribute( "rel", "stylesheet" );\r\n\t\t\t\tcorecss.setAttribute( "type", "text/css" );\r\n\t\t\t\tcorecss.setAttribute( "href", corecssurl );\r\n\t\t} else {\r\n\t\t\t\tcorecss.rel = "stylesheet";\r\n\t\t\t\tcorecss.href = corecssurl;\r\n\t\t}\r\n\t\tdocument.getElementsByTagName("head")[0].insertBefore( corecss, document.getElementById("syntaxhighlighteranchor") );\r\n\t\tvar themecssurl = "http://www.geeksforgeeks.org/wp-content/plugins/syntaxhighlighter/syntaxhighlighter3/styles/shThemeDefault.css?ver=3.0.9b";\r\n\t\tif ( themecss.setAttribute ) {\r\n\t\t\t\tthemecss.setAttribute( "rel", "stylesheet" );\r\n\t\t\t\tthemecss.setAttribute( "type", "text/css" );\r\n\t\t\t\tthemecss.setAttribute( "href", themecssurl );\r\n\t\t} else {\r\n\t\t\t\tthemecss.rel = "stylesheet";\r\n\t\t\t\tthemecss.href = themecssurl;\r\n\t\t}\r\n\t\t//document.getElementById("syntaxhighlighteranchor").appendChild(themecss);\r\n\t\tdocument.getElementsByTagName("head")[0].insertBefore( themecss, document.getElementById("syntaxhighlighteranchor") );\r\n\t})();\n\tSyntaxHighlighter.config.strings.expandSource = \'+ expand source\';\n\tSyntaxHighlighter.config.strings.help = \'?\';\n\tSyntaxHighlighter.config.strings.alert = \'SyntaxHighlighter\\n\\n\';\n\tSyntaxHighlighter.config.strings.noBrush = \'Can\\\'t find brush for: \';\n\tSyntaxHighlighter.config.strings.brushNotHtmlScript = \'Brush wasn\\\'t configured for html-script option: \';\n\tSyntaxHighlighter.defaults[\'gutter\'] = false;\n\tSyntaxHighlighter.defaults[\'pad-line-numbers\'] = true;\n\tSyntaxHighlighter.defaults[\'toolbar\'] = false;\n\tSyntaxHighlighter.all();\r\n</script>\r\n<link rel=\'stylesheet\' id=\'tabby-print-css\'  href=\'http://www.geeksforgeeks.org/wp-content/plugins/tabby-responsive-tabs/css/tabby-print.css\' type=\'text/css\' media=\'all\' />\n<script type=\'text/javascript\' src=\'http://www.geeksforgeeks.org/wp-includes/js/wp-embed.min.js\'></script>\n<script type=\'text/javascript\' src=\'http://www.geeksforgeeks.org/wp-content/plugins/tabby-responsive-tabs/js/tabby.js\'></script>\n\n<script>jQuery(document).ready(function($) { RESPONSIVEUI.responsiveTabs(); })</script>\n\r\n<script type="text/javascript">\r\n// below changes to be added in gfg.js in future.\r\n// load comment button click when page scroll to it and positioned ad in mobile view.\r\nflag=0;jQuery(window).scroll(function(){if(jQuery(\'#comment\').length !=0 ){var hT=jQuery(\'#comment\').offset().top,hH=jQuery(\'#comment\').outerHeight(),wH=jQuery(window).height(),wS=jQuery(this).scrollTop();if(wS>(hT+hH-wH-70)&&!flag){jQuery(\'#comment\').click();flag=1}}});var temp_width=jQuery(window).width();if(temp_width<468){if(jQuery(\'article\').length>1){jQuery(jQuery(\'.responsiveAd\')).insertAfter(\'article:eq(2)\');jQuery(\'.rectangleAd\').hide()}\r\nelse{jQuery(\'.responsiveAd\').hide();jQuery(\'.rectangleAd\').css(\'width\',\'\')}}\r\n\r\n\r\n  var _gaq = _gaq || [];\r\n  _gaq.push([\'_setAccount\', \'UA-12148232-1\']);\r\n  _gaq.push([\'_trackPageview\']);\r\n\r\n  (function() {\r\n    var ga = document.createElement(\'script\'); ga.type = \'text/javascript\'; ga.async = true;\r\n    ga.src = (\'https:\' == document.location.protocol ? \'https://ssl\' : \'http://www\') + \'.google-analytics.com/ga.js\';\r\n    var s = document.getElementsByTagName(\'script\')[0]; s.parentNode.insertBefore(ga, s);\r\n  })();\r\n\r\n</script>  \r\n<script async type="text/javascript" src="//cdn.fancybar.net/ac/fancybar.js?zoneid=1502&serve=C6ADVKE&placement=geeksforgeeks" id="_fancybar_js"></script>\r\n</body>\r\n</html>\r\n\n<!-- Dynamic page generated in 0.136 seconds. -->\n<!-- Cached page generated by WP-Super-Cache on 2017-07-09 08:14:59 -->\n\n<!-- Compression = gzip -->\n<!-- super cache -->'
p339
sb.