ccopy_reg
_reconstructor
p0
(cpost
Post
p1
c__builtin__
object
p2
Ntp3
Rp4
(dp5
S'file_name'
p6
S'/Users/anupamjain/code/gitRepo/Questions/Algo/Java/RightSideViewOfBTree.java'
p7
sS'files_covered'
p8
c__builtin__
set
p9
((lp10
g7
atp11
Rp12
sS'link'
p13
S'http://www.geeksforgeeks.org/print-right-view-binary-tree-2/'
p14
sb.