ccopy_reg
_reconstructor
p0
(cpost
Post
p1
c__builtin__
object
p2
Ntp3
Rp4
(dp5
S'post_file'
p6
S'/Users/anupamjain/code/gitRepo/GitToPost/posts/Java/MedianOfTwoSortedArrays'
p7
sS'files_covered'
p8
c__builtin__
set
p9
((lp10
S'/Users/anupamjain/code/gitRepo/Questions/Algo/Java/MedianOfTwoSortedArrays.java'
p11
aS'/Users/anupamjain/code/gitRepo/Questions/Algo/Java/MedianofSortedArrays.java'
p12
atp13
Rp14
sS'title'
p15
VMedian of two sorted arrays
p16
sS'file_name'
p17
g11
sS'link'
p18
S'http://www.geeksforgeeks.org/median-of-two-sorted-arrays/'
p19
sS'host_name'
p20
S'www.geeksforgeeks.org'
p21
sS'problem_text'
p22
g0
(cbs4.element
Tag
p23
g2
Ntp24
Rp25
(dp26
S'can_be_empty_element'
p27
I00
sS'previous_element'
p28
NsS'next_sibling'
p29
NsS'name'
p30
S'p'
p31
sS'parent'
p32
NsS'namespace'
p33
NsS'prefix'
p34
NsS'previous_sibling'
p35
NsS'attrs'
p36
(dp37
sS'next_element'
p38
NsS'parser_class'
p39
NsS'hidden'
p40
I00
sS'contents'
p41
(lp42
sbsS'raw_page'
p43
S'<!DOCTYPE html>\r\n<!--[if IE 7]>\r\n<html class="ie ie7" lang="en-US" prefix="og: http://ogp.me/ns#">\r\n<![endif]-->\r\n<!--[if IE 8]>\r\n<html class="ie ie8" lang="en-US" prefix="og: http://ogp.me/ns#">\r\n<![endif]-->\r\n<!--[if !(IE 7) | !(IE 8)  ]><!-->\r\n<html lang="en-US" prefix="og: http://ogp.me/ns#">\r\n<!--<![endif]-->\r\n<head>\r\n<meta charset="UTF-8" />\r\n<meta name="viewport" content="width=device-width" />\r\n\r\n<meta property="og:image" content="http://d1gjlxt8vb0knt.cloudfront.net//wp-content/uploads/gfg_200X200.png">\r\n<meta property="og:image:type" content="image/png">\r\n<meta property="og:image:width" content="200">\r\n<meta property="og:image:height" content="200">\r\n\r\n<title>Median of two sorted arrays - GeeksforGeeks</title>\r\n<link rel="profile" href="http://gmpg.org/xfn/11" />\r\n<link rel="pingback" href="http://www.geeksforgeeks.org/xmlrpc.php" />\r\n<!--[if lt IE 9]>\r\n<script src="http://d1gjlxt8vb0knt.cloudfront.net//wp-content/themes/iconic-one/js/html5.js" type="text/javascript"></script>\r\n<![endif]-->\r\n\n<!-- This site is optimized with the Yoast SEO plugin v3.0.7 - https://yoast.com/wordpress/plugins/seo/ -->\n<link rel="canonical" href="http://www.geeksforgeeks.org/median-of-two-sorted-arrays/" />\n<meta property="og:locale" content="en_US" />\n<meta property="og:type" content="article" />\n<meta property="og:title" content="Median of two sorted arrays - GeeksforGeeks" />\n<meta property="og:description" content="Question: There are 2 sorted arrays A and B of size n each. Write an algorithm to find the median of the array obtained after merging the above 2 arrays(i.e. array of length 2n). The complexity should be O(log(n)) We strongly recommend that you click here and practice it, before moving on to the solution.\xe2\x80\xa6 Read More &raquo;" />\n<meta property="og:url" content="http://www.geeksforgeeks.org/median-of-two-sorted-arrays/" />\n<meta property="og:site_name" content="GeeksforGeeks" />\n<meta property="article:tag" content="Divide and Conquer" />\n<meta property="article:section" content="Divide and Conquer" />\n<meta property="article:published_time" content="2009-09-28T16:40:26+00:00" />\n<meta property="article:modified_time" content="2016-02-23T16:05:27+00:00" />\n<meta property="og:updated_time" content="2016-02-23T16:05:27+00:00" />\n<!-- / Yoast SEO plugin. -->\n\n\t\t<script type="text/javascript">\n\t\t\twindow._wpemojiSettings = {"baseUrl":"http:\\/\\/s.w.org\\/images\\/core\\/emoji\\/72x72\\/","ext":".png","source":{"concatemoji":"http:\\/\\/www.geeksforgeeks.org\\/wp-includes\\/js\\/wp-emoji-release.min.js"}};\n\t\t\t!function(a,b,c){function d(a){var c=b.createElement("canvas"),d=c.getContext&&c.getContext("2d");return d&&d.fillText?(d.textBaseline="top",d.font="600 32px Arial","flag"===a?(d.fillText(String.fromCharCode(55356,56812,55356,56807),0,0),c.toDataURL().length>3e3):(d.fillText(String.fromCharCode(55357,56835),0,0),0!==d.getImageData(16,16,1,1).data[0])):!1}function e(a){var c=b.createElement("script");c.src=a,c.type="text/javascript",b.getElementsByTagName("head")[0].appendChild(c)}var f,g;c.supports={simple:d("simple"),flag:d("flag")},c.DOMReady=!1,c.readyCallback=function(){c.DOMReady=!0},c.supports.simple&&c.supports.flag||(g=function(){c.readyCallback()},b.addEventListener?(b.addEventListener("DOMContentLoaded",g,!1),a.addEventListener("load",g,!1)):(a.attachEvent("onload",g),b.attachEvent("onreadystatechange",function(){"complete"===b.readyState&&c.readyCallback()})),f=c.source||{},f.concatemoji?e(f.concatemoji):f.wpemoji&&f.twemoji&&(e(f.twemoji),e(f.wpemoji)))}(window,document,window._wpemojiSettings);\n\t\t</script>\n\t\t<style type="text/css">\nimg.wp-smiley,\nimg.emoji {\n\tdisplay: inline !important;\n\tborder: none !important;\n\tbox-shadow: none !important;\n\theight: 1em !important;\n\twidth: 1em !important;\n\tmargin: 0 .07em !important;\n\tvertical-align: -0.1em !important;\n\tbackground: none !important;\n\tpadding: 0 !important;\n}\n</style>\n<link rel=\'stylesheet\' id=\'wp-pagenavi-css\'  href=\'http://d1gjlxt8vb0knt.cloudfront.net//wp-content/plugins/wp-pagenavi/pagenavi-css.css\' type=\'text/css\' media=\'all\' />\n<link rel=\'stylesheet\' id=\'themonic-fonts-css\'  href=\'http://fonts.googleapis.com/css?family=Ubuntu:400,700&#038;subset=latin,latin-ext\' type=\'text/css\' media=\'all\' />\n<link rel=\'stylesheet\' id=\'themonic-style-css\'  href=\'http://d1gjlxt8vb0knt.cloudfront.net//wp-content/themes/iconic-one/style.css\' type=\'text/css\' media=\'all\' />\n<link rel=\'stylesheet\' id=\'custom-style-css\'  href=\'http://d1gjlxt8vb0knt.cloudfront.net//wp-content/themes/iconic-one/custom.css\' type=\'text/css\' media=\'all\' />\n<!--[if lt IE 9]>\n<link rel=\'stylesheet\' id=\'themonic-ie-css\'  href=\'http://d1gjlxt8vb0knt.cloudfront.net//wp-content/themes/iconic-one/css/ie.css\' type=\'text/css\' media=\'all\' />\n<![endif]-->\n<meta name="generator" content="WordPress 4.2.7" />\n<style type="text/css" id="custom-background-css">\nbody.custom-background { background-color: #ffffff; }\n</style>\n<style type="text/css" id="syntaxhighlighteranchor"></style>\n<script async src="//pagead2.googlesyndication.com/pagead/js/adsbygoogle.js"></script>\r\n<script>\r\n  (adsbygoogle = window.adsbygoogle || []).push({\r\n    google_ad_client: "ca-pub-9465609616171866",\r\n    enable_page_level_ads: true\r\n  });\r\n</script>\r\n</head>\r\n<body class="single single-post postid-2105 single-format-standard custom-background custom-background-white custom-font-enabled">\r\n<div id="page" class="hfeed site">\r\n\t<header id="masthead" class="site-header" role="banner">\r\n\t\t\t\t\t<hgroup>\r\n\t\t\t<a href="http://www.geeksforgeeks.org/" title="GeeksforGeeks" rel="home">GeeksforGeeks</a>\r\n\t\t\t\t<br .../> <a class="site-description">A computer science portal for geeks</a>\r\n\t\t</hgroup>\r\n\r\n<div style="float:right;">\r\n<hgroup style="float:right;">   \r\n\r\n<a style="padding:0px 25px 0px 0px; font-size:25px; font-family: Georgia,Times New Roman,Times,Helvetica,Arial,serif; font-weight: lighter; letter-spacing: -0.05em; text-decoration:none;" href="http://www.geeksforgeeks.org/campus-ambassador-program-by-geeksforgeeks/">CA</a>\r\n\r\n<a style="padding:0px 25px 0px 0px; font-size:25px; font-family: Georgia,Times New Roman,Times,Helvetica,Arial,serif; font-weight: lighter; letter-spacing: -0.05em; text-decoration:none;" href="http://geeksquiz.com/gate-corner-2/">GATE CS</a>\r\n\r\n<strong><a style="padding:0px 25px 0px 0px; font-size:25px; font-family: Georgia,Times New Roman,Times,Helvetica,Arial,serif; font-weight: lighter; letter-spacing: -0.05em; text-decoration:none;" href="http://practice.geeksforgeeks.org/">Practice</a></strong>\r\n\r\n<a style="padding:0px 25px 0px 0px; font-size:25px; font-family: Georgia,Times New Roman,Times,Helvetica,Arial,serif; font-weight: lighter; letter-spacing: -0.05em; text-decoration:none;" href="http://www.geeksforgeeks.org/suggest/">Suggest</a>\r\n\r\n<a style="padding:0px 25px 0px 0px; font-size:25px; font-family: Georgia,Times New Roman,Times,Helvetica,Arial,serif; font-weight: lighter; letter-spacing: -0.05em; text-decoration:none;" href="http://code.geeksforgeeks.org/">IDE</a>\r\n\r\n<a style="padding:0px 25px 0px 0px; font-size:25px; font-family: Georgia,Times New Roman,Times,Helvetica,Arial,serif; font-weight: lighter; letter-spacing: -0.05em; text-decoration:none;" href="http://qa.geeksforgeeks.org/">Q&A</a>\r\n\r\n<a style="padding:0px 30px 0px 0px; font-size:25px; font-family: Georgia,Times New Roman,Times,Helvetica,Arial,serif; font-weight: lighter; letter-spacing: -0.05em; text-decoration:none;" href="http://geeksquiz.com/">GeeksQuiz</a>\r\n\r\n</hgroup><br></br>\r\n\r\n<span style="display:inline-block; width:300px;float:right;">\r\n<script>\r\n  (function() {\r\n    var cx = \'009682134359037907028:tj6eafkv_be\';\r\n    var gcse = document.createElement(\'script\');\r\n    gcse.type = \'text/javascript\';\r\n    gcse.async = true;\r\n    gcse.src = (document.location.protocol == \'https:\' ? \'https:\' : \'http:\') +\r\n        \'//cse.google.com/cse.js?cx=\' + cx;\r\n    var s = document.getElementsByTagName(\'script\')[0];\r\n    s.parentNode.insertBefore(gcse, s);\r\n  })();\r\n</script>\r\n<gcse:search></gcse:search>\r\n\r\n<style type="text/css">\r\n  .gsc-control-cse {\r\n     padding: 0px 10px;\r\n  } \r\n\r\n  .gsc-control-cse {\r\n    font-family: "Trebuchet MS", sans-serif;\r\n    /*border-color: #E1F3DA;*/\r\n    /*background-color: #E1F3DA;*/\r\n  }\r\n  input.gsc-input {\r\n    border-color: #94CC7A;\r\n  }\r\n  input.gsc-search-button {\r\n    border-color: #94CC7A;\r\n    background-color: #4CB96B;\r\n    margin-top:7px;\r\n  }\r\n  .gsc-tabHeader.gsc-tabhInactive {\r\n    border-color: #A9DA92;\r\n    background-color: #FFFFFF;\r\n  }\r\n  .gsc-tabHeader.gsc-tabhActive {\r\n    border-color: #A9DA92;\r\n    background-color: #A9DA92;\r\n  }\r\n  .gsc-tabsArea {\r\n    border-color: #A9DA92;\r\n  }\r\n  .gsc-webResult.gsc-result {\r\n    border-color: #A9DA92;\r\n    background-color: #FFFFFF;\r\n  }\r\n  .gsc-webResult.gsc-result:hover {\r\n    border-color: #A9DA92;\r\n    background-color: #FFFFFF;\r\n  }\r\n  .gs-webResult.gs-result a.gs-title:link,\r\n  .gs-webResult.gs-result a.gs-title:link b {\r\n    color: #009900;\r\n  }\r\n  .gs-webResult.gs-result a.gs-title:visited,\r\n  .gs-webResult.gs-result a.gs-title:visited b {\r\n    color: #009900;\r\n  }\r\n  .gs-webResult.gs-result a.gs-title:hover,\r\n  .gs-webResult.gs-result a.gs-title:hover b {\r\n    color: #003300;\r\n  }\r\n  .gs-webResult.gs-result a.gs-title:active,\r\n  .gs-webResult.gs-result a.gs-title:active b {\r\n    color: #009900;\r\n  }\r\n  .gsc-cursor-page {\r\n    color: #009900;\r\n  }\r\n  a.gsc-trailing-more-results:link {\r\n    color: #009900;\r\n  }\r\n  .gs-webResult.gs-result .gs-snippet {\r\n    color: #454545;\r\n  }\r\n  .gs-webResult.gs-result .gs-visibleUrl {\r\n    color: #33cc00;\r\n  }\r\n  .gs-webResult.gs-result .gs-visibleUrl-short {\r\n    color: #33cc00;\r\n  }\r\n  .gs-webResult.gs-result .gs-visibleUrl-short {\r\n    display: none;\r\n  }\r\n  .gs-webResult.gs-result .gs-visibleUrl-long {\r\n    display: block;\r\n  }\r\n  .gsc-cursor-box {\r\n    border-color: #A9DA92;\r\n  }\r\n  .gsc-results .gsc-cursor-page {\r\n    border-color: #A9DA92;\r\n    background-color: #FFFFFF;\r\n  }\r\n  .gsc-results .gsc-cursor-page.gsc-cursor-current-page {\r\n    border-color: #A9DA92;\r\n    background-color: #A9DA92;\r\n  }\r\n  .gs-promotion.gs-result {\r\n    border-color: #94CC7A;\r\n    background-color: #CBE8B4;\r\n  }\r\n  .gs-promotion.gs-result a.gs-title:link {\r\n    color: #0066CC;\r\n  }\r\n  .gs-promotion.gs-result a.gs-title:visited {\r\n    color: #0066CC;\r\n  }\r\n  .gs-promotion.gs-result a.gs-title:hover {\r\n    color: #0066CC;\r\n  }\r\n  .gs-promotion.gs-result a.gs-title:active {\r\n    color: #0066CC;\r\n  }\r\n  .gs-promotion.gs-result .gs-snippet {\r\n    color: #454545;\r\n  }\r\n  .gs-promotion.gs-result .gs-visibleUrl,\r\n  .gs-promotion.gs-result .gs-visibleUrl-short {\r\n    color: #815FA7;\r\n  }\r\n  .gsib_a {\r\n    padding : 2px;\r\n  }\r\n</style>    \r\n</span>\r\n</div>\r\n\r\n\t\t\r\n\t\t\r\n\t\t<nav id="site-navigation" class="themonic-nav" role="navigation">\r\n\t\t\t<a class="assistive-text" href="#content" title="Skip to content">Skip to content</a>\r\n\t\t\t<div class="menu-iconic-container"><ul id="menu-top" class="nav-menu"><li id="menu-item-135003" class="menu-item menu-item-type-custom menu-item-object-custom menu-item-home menu-item-135003"><a href="http://www.geeksforgeeks.org/">Home</a></li>\n<li id="menu-item-135004" class="menu-item menu-item-type-post_type menu-item-object-page menu-item-has-children menu-item-135004"><a title="Algorithms" href="http://www.geeksforgeeks.org/fundamentals-of-algorithms/">Algo</a>\n<ul class="sub-menu">\n\t<li id="menu-item-135030" class="menu-item menu-item-type-custom menu-item-object-custom menu-item-135030"><a href="http://www.geeksforgeeks.org/fundamentals-of-algorithms/#AnalysisofAlgorithms">Analysis of Algorithms</a></li>\n\t<li id="menu-item-135031" class="menu-item menu-item-type-custom menu-item-object-custom menu-item-135031"><a href="http://www.geeksforgeeks.org/fundamentals-of-algorithms/#SearchingandSorting">Searching and Sorting</a></li>\n\t<li id="menu-item-135032" class="menu-item menu-item-type-custom menu-item-object-custom menu-item-135032"><a href="http://www.geeksforgeeks.org/fundamentals-of-algorithms/#GreedyAlgorithms">Greedy Algorithms</a></li>\n\t<li id="menu-item-135033" class="menu-item menu-item-type-custom menu-item-object-custom menu-item-135033"><a href="http://www.geeksforgeeks.org/fundamentals-of-algorithms/#DynamicProgramming">Dynamic Programming</a></li>\n\t<li id="menu-item-135034" class="menu-item menu-item-type-custom menu-item-object-custom menu-item-135034"><a href="http://www.geeksforgeeks.org/fundamentals-of-algorithms/#PatternSearching">Pattern Searching</a></li>\n\t<li id="menu-item-135035" class="menu-item menu-item-type-custom menu-item-object-custom menu-item-135035"><a href="http://www.geeksforgeeks.org/fundamentals-of-algorithms/#OtherStringAlgorithms">Other String Algorithms</a></li>\n\t<li id="menu-item-135036" class="menu-item menu-item-type-custom menu-item-object-custom menu-item-135036"><a href="http://www.geeksforgeeks.org/fundamentals-of-algorithms/#Backtracking">Backtracking</a></li>\n\t<li id="menu-item-135037" class="menu-item menu-item-type-custom menu-item-object-custom menu-item-135037"><a href="http://www.geeksforgeeks.org/fundamentals-of-algorithms/#DivideandConquer">Divide and Conquer</a></li>\n\t<li id="menu-item-135038" class="menu-item menu-item-type-custom menu-item-object-custom menu-item-135038"><a href="http://www.geeksforgeeks.org/fundamentals-of-algorithms/#GeometricAlgorithms">Geometric Algorithms</a></li>\n\t<li id="menu-item-135039" class="menu-item menu-item-type-custom menu-item-object-custom menu-item-135039"><a href="http://www.geeksforgeeks.org/fundamentals-of-algorithms/#MathematicalAlgorithms">Mathematical Algorithms</a></li>\n\t<li id="menu-item-135040" class="menu-item menu-item-type-custom menu-item-object-custom menu-item-135040"><a href="http://www.geeksforgeeks.org/fundamentals-of-algorithms/#BitAlgorithms">Bit Algorithms</a></li>\n\t<li id="menu-item-135041" class="menu-item menu-item-type-custom menu-item-object-custom menu-item-135041"><a href="http://www.geeksforgeeks.org/fundamentals-of-algorithms/#GraphAlgorithms">Graph Algorithms</a></li>\n\t<li id="menu-item-135042" class="menu-item menu-item-type-custom menu-item-object-custom menu-item-135042"><a href="http://www.geeksforgeeks.org/fundamentals-of-algorithms/#RandomizedAlgorithms">Randomized Algorithms</a></li>\n</ul>\n</li>\n<li id="menu-item-135010" class="menu-item menu-item-type-post_type menu-item-object-page menu-item-has-children menu-item-135010"><a title="Data Structures" href="http://www.geeksforgeeks.org/data-structures/">DS</a>\n<ul class="sub-menu">\n\t<li id="menu-item-135045" class="menu-item menu-item-type-custom menu-item-object-custom menu-item-135045"><a href="http://www.geeksforgeeks.org/data-structures/#LinkedList">LinkedList</a></li>\n\t<li id="menu-item-135046" class="menu-item menu-item-type-custom menu-item-object-custom menu-item-135046"><a href="http://www.geeksforgeeks.org/data-structures/#Stack">Stack</a></li>\n\t<li id="menu-item-135047" class="menu-item menu-item-type-custom menu-item-object-custom menu-item-135047"><a href="http://www.geeksforgeeks.org/data-structures/#Queue">Queue</a></li>\n\t<li id="menu-item-135048" class="menu-item menu-item-type-custom menu-item-object-custom menu-item-135048"><a href="http://www.geeksforgeeks.org/data-structures/#BinaryTree">Binary Tree</a></li>\n\t<li id="menu-item-135049" class="menu-item menu-item-type-custom menu-item-object-custom menu-item-135049"><a href="http://www.geeksforgeeks.org/data-structures/#BinarySearchTree">Binary Search Tree</a></li>\n\t<li id="menu-item-135050" class="menu-item menu-item-type-custom menu-item-object-custom menu-item-135050"><a href="http://www.geeksforgeeks.org/data-structures/#Heap">Heap</a></li>\n\t<li id="menu-item-135051" class="menu-item menu-item-type-custom menu-item-object-custom menu-item-135051"><a href="http://www.geeksforgeeks.org/data-structures/#Hashing">Hashing</a></li>\n\t<li id="menu-item-135052" class="menu-item menu-item-type-custom menu-item-object-custom menu-item-135052"><a href="http://www.geeksforgeeks.org/data-structures/#Graph">Graph</a></li>\n\t<li id="menu-item-135053" class="menu-item menu-item-type-custom menu-item-object-custom menu-item-135053"><a href="http://www.geeksforgeeks.org/data-structures/#AdvancedDataStructure">Advanced Data Structure</a></li>\n\t<li id="menu-item-135054" class="menu-item menu-item-type-custom menu-item-object-custom menu-item-135054"><a href="http://www.geeksforgeeks.org/data-structures/#Array">Array</a></li>\n\t<li id="menu-item-135055" class="menu-item menu-item-type-custom menu-item-object-custom menu-item-135055"><a href="http://www.geeksforgeeks.org/data-structures/#Matrix">Matrix</a></li>\n\t<li id="menu-item-135056" class="menu-item menu-item-type-custom menu-item-object-custom menu-item-135056"><a href="http://www.geeksforgeeks.org/data-structures/#Misc">Misc</a></li>\n</ul>\n</li>\n<li id="menu-item-135014" class="menu-item menu-item-type-post_type menu-item-object-page menu-item-135014"><a href="http://www.geeksforgeeks.org/about/interview-corner/">Interview</a></li>\n<li id="menu-item-135006" class="menu-item menu-item-type-post_type menu-item-object-page menu-item-135006"><a href="http://www.geeksforgeeks.org/c/">C</a></li>\n<li id="menu-item-135007" class="menu-item menu-item-type-post_type menu-item-object-page menu-item-135007"><a href="http://www.geeksforgeeks.org/c-plus-plus/">C++</a></li>\n<li id="menu-item-135012" class="menu-item menu-item-type-post_type menu-item-object-page menu-item-135012"><a href="http://www.geeksforgeeks.org/java/">Java</a></li>\n<li id="menu-item-137004" class="menu-item menu-item-type-post_type menu-item-object-page menu-item-137004"><a href="http://www.geeksforgeeks.org/python/">Python</a></li>\n<li id="menu-item-135009" class="menu-item menu-item-type-post_type menu-item-object-page menu-item-135009"><a href="http://www.geeksforgeeks.org/contribute/">Contribute</a></li>\n<li id="menu-item-135016" class="menu-item menu-item-type-custom menu-item-object-custom menu-item-135016"><a href="http://qa.geeksforgeeks.org/index.php?qa=ask">Ask a Q</a></li>\n<li id="menu-item-135077" class="menu-item menu-item-type-custom menu-item-object-custom menu-item-135077"><a href="https://play.google.com/store/apps/details?id=free.programming.programming">AndroidApp</a></li>\n<li id="menu-item-135367" class="menu-item menu-item-type-taxonomy menu-item-object-category menu-item-135367"><a href="http://www.geeksforgeeks.org/category/guestblogs/">GBlog</a></li>\n<li id="menu-item-135028" class="menu-item menu-item-type-taxonomy menu-item-object-category menu-item-135028"><a href="http://www.geeksforgeeks.org/category/gfact/">GFact</a></li>\n<li id="menu-item-136004" class="menu-item menu-item-type-taxonomy menu-item-object-category menu-item-136004"><a href="http://www.geeksforgeeks.org/category/project/">Project</a></li>\n<li id="menu-item-136978" class="menu-item menu-item-type-post_type menu-item-object-page menu-item-136978"><a href="http://www.geeksforgeeks.org/jobs/">Jobs</a></li>\n<li id="menu-item-135019" class="menu-item menu-item-type-taxonomy menu-item-object-category menu-item-135019"><a href="http://www.geeksforgeeks.org/category/c-arrays/">Arr</a></li>\n<li id="menu-item-135022" class="menu-item menu-item-type-taxonomy menu-item-object-category menu-item-135022"><a href="http://www.geeksforgeeks.org/category/c-strings/">String</a></li>\n<li id="menu-item-135937" class="menu-item menu-item-type-taxonomy menu-item-object-category menu-item-135937"><a href="http://www.geeksforgeeks.org/category/matrix/">Matrix</a></li>\n<li id="menu-item-135023" class="menu-item menu-item-type-taxonomy menu-item-object-category menu-item-135023"><a href="http://www.geeksforgeeks.org/category/linked-list/">Linked List</a></li>\n<li id="menu-item-135029" class="menu-item menu-item-type-custom menu-item-object-custom menu-item-135029"><a href="http://www.geeksforgeeks.org/category/stack/">Stack</a></li>\n<li id="menu-item-135932" class="menu-item menu-item-type-taxonomy menu-item-object-category menu-item-135932"><a href="http://www.geeksforgeeks.org/category/queue/">Q</a></li>\n<li id="menu-item-136299" class="menu-item menu-item-type-taxonomy menu-item-object-category menu-item-136299"><a href="http://www.geeksforgeeks.org/category/hash/">Hash</a></li>\n<li id="menu-item-135941" class="menu-item menu-item-type-taxonomy menu-item-object-category menu-item-135941"><a href="http://www.geeksforgeeks.org/category/heap/">Heap</a></li>\n<li id="menu-item-135020" class="menu-item menu-item-type-taxonomy menu-item-object-category menu-item-135020"><a href="http://www.geeksforgeeks.org/category/tree/">Tree</a></li>\n<li id="menu-item-135940" class="menu-item menu-item-type-taxonomy menu-item-object-category menu-item-135940"><a href="http://www.geeksforgeeks.org/category/binary-search-tree/">BST</a></li>\n<li id="menu-item-135024" class="menu-item menu-item-type-taxonomy menu-item-object-category menu-item-135024"><a href="http://www.geeksforgeeks.org/category/graph/">Graph</a></li>\n<li id="menu-item-135017" class="menu-item menu-item-type-taxonomy menu-item-object-category menu-item-135017"><a href="http://www.geeksforgeeks.org/category/c-puzzles/">C/C++</a></li>\n<li id="menu-item-135027" class="menu-item menu-item-type-taxonomy menu-item-object-category menu-item-135027"><a href="http://www.geeksforgeeks.org/category/bit-magic/">Bit</a></li>\n<li id="menu-item-135021" class="menu-item menu-item-type-taxonomy menu-item-object-category menu-item-135021"><a href="http://www.geeksforgeeks.org/category/multiple-choice-question/">MCQ</a></li>\n<li id="menu-item-135018" class="menu-item menu-item-type-taxonomy menu-item-object-category menu-item-135018"><a href="http://www.geeksforgeeks.org/category/c-programs/">Misc</a></li>\n<li id="menu-item-135025" class="menu-item menu-item-type-taxonomy menu-item-object-category menu-item-135025"><a href="http://www.geeksforgeeks.org/category/program-output/">O/P</a></li>\n</ul></div>\t\t</nav><!-- #site-navigation -->\r\n\t\t<div class="clear"></div>\r\n\t</header><!-- #masthead -->\r\n\r\n\t<div id="main" class="wrapper">\t<div id="primary" class="site-content">\r\n\t\t<div id="content" role="main">\r\n\r\n\t\t\t\t\t\t\t\r\n\t<article id="post-2105" class="post-2105 post type-post status-publish format-standard hentry category-divide-and-conquer category-searching tag-divide-and-conquer">\r\n\t\t\t\t<header class="entry-header">\r\n\t\t\t\t\t\t<h1 class="entry-title">Median of two sorted arrays</h1>\r\n\t\t\t\t\r\n\t\t\t</header><!-- .entry-header -->\r\n\r\n\t\t\t\t<div class="entry-content">\r\n\t\t\t<p><em>Question:</em> There are 2 sorted arrays A and B of size n each. Write an algorithm to find the median of the array obtained after merging the above 2 arrays(i.e. array of length 2n). The complexity should be O(log(n))<br />\n<span id="more-2105"></span><br />\n<a href="http://www.practice.geeksforgeeks.org/problem-page.php?pid=240" target="_blank"><br />\n<h2>We strongly recommend that you click here and practice it, before moving on to the solution.</h2>\n<p></a><br />\n<em>Median:</em> In probability theory and statistics, a median is described as the number separating the higher half of a sample, a population, or a probability distribution, from the lower half.<br />\nThe median of a finite list of numbers can be found by arranging all the numbers from lowest value to highest value and picking the middle one. </p>\n<p>For getting the median of input array { 12, 11, 15, 10, 20 }, first sort the array. We get  { 10, 11, 12, 15, 20 } after sorting. Median is the middle element of the sorted array which is 12.</p>\n<p>There are different conventions to take median of an array with even number of elements, one can take the mean of the two middle values, or first middle value, or second middle value.</p>\n<p>Let us see different methods to get the median of two sorted arrays of size n each. Since size of the set for which we are looking for median is even (2n), we are taking average of middle two numbers in all below solutions.</p>\n<p><strong>Method 1 (Simply count while Merging)</strong><br />\nUse merge procedure of merge sort. Keep track of count while comparing elements of two arrays. If count becomes n(For 2n elements), we have reached the median. Take the average of the elements at indexes n-1 and n in the merged array. See the below implementation.</p>\n<p>Implementation:</p>\n<pre class="brush: cpp; highlight: [3,4,5,6,7,8,9,10,11,12,13,14,15,16,17,18,19,20,21,22,23,24,25,26,27,28,29,30,31,32,33,34,35,36,37,38,39,40,41,42,43,44,45,46,47,48,49,50,51,52]; title: ; notranslate" title="">\r\n#include &lt;stdio.h&gt;\r\n\r\n/* This function returns median of ar1[] and ar2[].\r\n   Assumptions in this function:\r\n   Both ar1[] and ar2[] are sorted arrays\r\n   Both have n elements */\r\nint getMedian(int ar1[], int ar2[], int n)\r\n{\r\n    int i = 0;  /* Current index of i/p array ar1[] */\r\n    int j = 0; /* Current index of i/p array ar2[] */\r\n    int count;\r\n    int m1 = -1, m2 = -1;\r\n\r\n    /* Since there are 2n elements, median will be average\r\n     of elements at index n-1 and n in the array obtained after\r\n     merging ar1 and ar2 */\r\n    for (count = 0; count &lt;= n; count++)\r\n    {\r\n        /*Below is to handle case where all elements of ar1[] are\r\n          smaller than smallest(or first) element of ar2[]*/\r\n        if (i == n)\r\n        {\r\n            m1 = m2;\r\n            m2 = ar2[0];\r\n            break;\r\n        }\r\n\r\n        /*Below is to handle case where all elements of ar2[] are\r\n          smaller than smallest(or first) element of ar1[]*/\r\n        else if (j == n)\r\n        {\r\n            m1 = m2;\r\n            m2 = ar1[0];\r\n            break;\r\n        }\r\n\r\n        if (ar1[i] &lt; ar2[j])\r\n        {\r\n            m1 = m2;  /* Store the prev median */\r\n            m2 = ar1[i];\r\n            i++;\r\n        }\r\n        else\r\n        {\r\n            m1 = m2;  /* Store the prev median */\r\n            m2 = ar2[j];\r\n            j++;\r\n        }\r\n    }\r\n\r\n    return (m1 + m2)/2;\r\n}\r\n\r\n/* Driver program to test above function */\r\nint main()\r\n{\r\n    int ar1[] = {1, 12, 15, 26, 38};\r\n    int ar2[] = {2, 13, 17, 30, 45};\r\n\r\n    int n1 = sizeof(ar1)/sizeof(ar1[0]);\r\n    int n2 = sizeof(ar2)/sizeof(ar2[0]);\r\n    if (n1 == n2)\r\n        printf(&quot;Median is %d&quot;, getMedian(ar1, ar2, n1));\r\n    else\r\n        printf(&quot;Doesn\'t work for arrays of unequal size&quot;);\r\n    getchar();\r\n    return 0;\r\n}\r\n</pre>\n<p>Time Complexity: O(n)</p>\n<p></br><br />\n<strong><br />\nMethod 2 (By comparing the medians of two arrays)</strong><br />\nThis method works by first getting medians of the two sorted arrays and then comparing them.</p>\n<p>Let ar1 and ar2 be the input arrays. </p>\n<p>Algorithm:</p>\n<pre>\r\n1) Calculate the medians m1 and m2 of the input arrays ar1[] \r\n   and ar2[] respectively.\r\n2) If m1 and m2 both are equal then we are done.\r\n     return m1 (or m2)\r\n3) If m1 is greater than m2, then median is present in one \r\n   of the below two subarrays.\r\n    a)  From first element of ar1 to m1 (ar1[0...|_n/2_|])\r\n    b)  From m2 to last element of ar2  (ar2[|_n/2_|...n-1])\r\n4) If m2 is greater than m1, then median is present in one    \r\n   of the below two subarrays.\r\n   a)  From m1 to last element of ar1  (ar1[|_n/2_|...n-1])\r\n   b)  From first element of ar2 to m2 (ar2[0...|_n/2_|])\r\n5) Repeat the above process until size of both the subarrays \r\n   becomes 2.\r\n6) If size of the two arrays is 2 then use below formula to get \r\n  the median.\r\n    Median = (max(ar1[0], ar2[0]) + min(ar1[1], ar2[1]))/2\r\n</pre>\n<p>Example:</p>\n<pre>\r\n   ar1[] = {1, 12, 15, 26, 38}\r\n   ar2[] = {2, 13, 17, 30, 45}\r\n</pre>\n<p>For above two arrays m1 =  15 and m2 = 17</p>\n<p>For the above ar1[] and ar2[], m1 is smaller than m2. So median is present in one of the following two subarrays.</p>\n<pre>\r\n   [15, 26, 38] and [2, 13, 17]\r\n</pre>\n<p>Let us repeat the process for above two subarrays: </p>\n<pre>\r\n    m1 = 26 m2 = 13.\r\n</pre>\n<p>m1 is greater than m2. So the subarrays become</p>\n<pre>\r\n  [15, 26] and [13, 17]\r\nNow size is 2, so median = (max(ar1[0], ar2[0]) + min(ar1[1], ar2[1]))/2\r\n                       = (max(15, 13) + min(26, 17))/2 \r\n                       = (15 + 17)/2\r\n                       = 16\r\n</pre>\n<p>Implementation:</p>\n<pre class="brush: cpp; highlight: [7,8,9,10,11,12,13,14,15,16,17,18,19,20,21,22,23,24,25,26,27,28,29,30,31,32,33,34,35,36,37,38,39,40,41,42,43,44,45,46,47,48,49,50]; title: ; notranslate" title="">\r\n#include&lt;stdio.h&gt;\r\n\r\nint max(int, int); /* to get maximum of two integers */\r\nint min(int, int); /* to get minimum of two integeres */\r\nint median(int [], int); /* to get median of a sorted array */\r\n\r\n/* This function returns median of ar1[] and ar2[].\r\n   Assumptions in this function:\r\n   Both ar1[] and ar2[] are sorted arrays\r\n   Both have n elements */\r\nint getMedian(int ar1[], int ar2[], int n)\r\n{\r\n    int m1; /* For median of ar1 */\r\n    int m2; /* For median of ar2 */\r\n\r\n    /* return -1  for invalid input */\r\n    if (n &lt;= 0)\r\n        return -1;\r\n\r\n    if (n == 1)\r\n        return (ar1[0] + ar2[0])/2;\r\n\r\n    if (n == 2)\r\n        return (max(ar1[0], ar2[0]) + min(ar1[1], ar2[1])) / 2;\r\n\r\n    m1 = median(ar1, n); /* get the median of the first array */\r\n    m2 = median(ar2, n); /* get the median of the second array */\r\n\r\n    /* If medians are equal then return either m1 or m2 */\r\n    if (m1 == m2)\r\n        return m1;\r\n\r\n     /* if m1 &lt; m2 then median must exist in ar1[m1....] and ar2[....m2] */\r\n    if (m1 &lt; m2)\r\n    {\r\n        if (n % 2 == 0)\r\n            return getMedian(ar1 + n/2 - 1, ar2, n - n/2 +1);\r\n        else\r\n            return getMedian(ar1 + n/2, ar2, n - n/2);\r\n    }\r\n\r\n    /* if m1 &gt; m2 then median must exist in ar1[....m1] and ar2[m2...] */\r\n    else\r\n    {\r\n        if (n % 2 == 0)\r\n            return getMedian(ar2 + n/2 - 1, ar1, n - n/2 + 1);\r\n        else\r\n            return getMedian(ar2 + n/2, ar1, n - n/2);\r\n    }\r\n}\r\n\r\n/* Function to get median of a sorted array */\r\nint median(int arr[], int n)\r\n{\r\n    if (n%2 == 0)\r\n        return (arr[n/2] + arr[n/2-1])/2;\r\n    else\r\n        return arr[n/2];\r\n}\r\n\r\n/* Driver program to test above function */\r\nint main()\r\n{\r\n    int ar1[] = {1, 2, 3, 6};\r\n    int ar2[] = {4, 6, 8, 10};\r\n    int n1 = sizeof(ar1)/sizeof(ar1[0]);\r\n    int n2 = sizeof(ar2)/sizeof(ar2[0]);\r\n    if (n1 == n2)\r\n      printf(&quot;Median is %d&quot;, getMedian(ar1, ar2, n1));\r\n    else\r\n     printf(&quot;Doesn\'t work for arrays of unequal size&quot;);\r\n\r\n    getchar();\r\n    return 0;\r\n}\r\n\r\n/* Utility functions */\r\nint max(int x, int y)\r\n{\r\n    return x &gt; y? x : y;\r\n}\r\n\r\nint min(int x, int y)\r\n{\r\n    return x &gt; y? y : x;\r\n}\r\n</pre>\n<p>Time Complexity: O(logn)<br />\nAlgorithmic Paradigm: Divide and Conquer<br />\n<br /></br><br />\n<strong>Method 3 (By doing binary search for the median):</strong><br />\nThe basic idea is that if you are given two arrays ar1[] and ar2[] and know the length of each, you can check whether an element ar1[i] is the median in constant time. Suppose that the median is ar1[i]. Since the array is sorted, it is greater than exactly i values in array ar1[]. Then if it is the median, it is also greater than exactly j = n &#8211; i &#8211; 1 elements in ar2[].<br />\nIt requires constant time to check if ar2[j] <= ar1[i] <= ar2[j + 1]. If ar1[i] is not the median, then depending on whether ar1[i] is greater or less than ar2[j] and ar2[j + 1], you know that ar1[i] is either greater than or less than the median. Thus you can binary search for median in O(lg n) worst-case time.\n\nFor two arrays ar1 and ar2, first do binary search in ar1[].  If you reach at the end (left or right) of the first array and don\'t find median, start searching in the second array ar2[].\n\n\n<pre>\r\n1) Get the middle element of ar1[] using array indexes left and right.  \r\n   Let index of the middle element be i.\r\n2) Calculate the corresponding index j of ar2[]\r\n     j = n &#8211; i &#8211; 1 \r\n3) If ar1[i] >= ar2[j] and ar1[i] <= ar2[j+1] then ar1[i] and ar2[j]\r\n   are the middle elements.\r\n     return average of ar2[j] and ar1[i]\r\n4) If ar1[i] is greater than both ar2[j] and ar2[j+1] then \r\n     do binary search in left half  (i.e., arr[left ... i-1])\r\n5) If ar1[i] is smaller than both ar2[j] and ar2[j+1] then\r\n     do binary search in right half (i.e., arr[i+1....right])\r\n6) If you reach at any corner of ar1[] then do binary search in ar2[]\r\n</pre>\n<p>Example:</p>\n<pre>\r\n   ar1[] = {1, 5, 7, 10, 13}\r\n   ar2[] = {11, 15, 23, 30, 45}</pre>\n<p>Middle element of ar1[] is 7. Let us compare 7 with 23 and 30, since 7 smaller than both 23 and 30, move to right in ar1[]. Do binary search in {10, 13}, this step will pick 10. Now compare 10 with 15 and 23.  Since 10 is smaller than both 15 and 23, again move to right. Only 13 is there in right side now. Since 13 is greater than 11 and smaller than 15, terminate here. We have got the median as 12 (average of 11 and 13)</p>\n<p>Implementation:</p>\n<pre class="brush: cpp; highlight: [5,6,7,8,9,10,11,12,13,14,15,16,17,18,19,20,21,22,23,24,25,26,27,28,29,30,31,32,33,34,35,36,37,38,39,40,41,42,43,44,45,46]; title: ; notranslate" title="">\r\n#include&lt;stdio.h&gt;\r\n\r\nint getMedianRec(int ar1[], int ar2[], int left, int right, int n);\r\n\r\n/* This function returns median of ar1[] and ar2[].\r\n   Assumptions in this function:\r\n   Both ar1[] and ar2[] are sorted arrays\r\n   Both have n elements */\r\nint getMedian(int ar1[], int ar2[], int n)\r\n{\r\n    return getMedianRec(ar1, ar2, 0, n-1, n);\r\n}\r\n\r\n/* A recursive function to get the median of ar1[] and ar2[]\r\n   using binary search */\r\nint getMedianRec(int ar1[], int ar2[], int left, int right, int n)\r\n{\r\n    int i, j;\r\n\r\n    /* We have reached at the end (left or right) of ar1[] */\r\n    if (left &gt; right)\r\n        return getMedianRec(ar2, ar1, 0, n-1, n);\r\n\r\n    i = (left + right)/2;\r\n    j = n - i - 1;  /* Index of ar2[] */\r\n\r\n    /* Recursion terminates here.*/\r\n    if (ar1[i] &gt; ar2[j] &amp;&amp; (j == n-1 || ar1[i] &lt;= ar2[j+1]))\r\n    {\r\n        /* ar1[i] is decided as median 2, now select the median 1\r\n           (element just before ar1[i] in merged array) to get the\r\n           average of both*/\r\n        if (i == 0 || ar2[j] &gt; ar1[i-1])\r\n            return (ar1[i] + ar2[j])/2;\r\n        else\r\n            return (ar1[i] + ar1[i-1])/2;\r\n    }\r\n\r\n    /*Search in left half of ar1[]*/\r\n    else if (ar1[i] &gt; ar2[j] &amp;&amp; j != n-1 &amp;&amp; ar1[i] &gt; ar2[j+1])\r\n        return getMedianRec(ar1, ar2, left, i-1, n);\r\n\r\n    /*Search in right half of ar1[]*/\r\n    else /* ar1[i] is smaller than both ar2[j] and ar2[j+1]*/\r\n        return getMedianRec(ar1, ar2, i+1, right, n);\r\n}\r\n\r\n/* Driver program to test above function */\r\nint main()\r\n{\r\n    int ar1[] = {1, 12, 15, 26, 38};\r\n    int ar2[] = {2, 13, 17, 30, 45};\r\n    int n1 = sizeof(ar1)/sizeof(ar1[0]);\r\n    int n2 = sizeof(ar2)/sizeof(ar2[0]);\r\n    if (n1 == n2)\r\n        printf(&quot;Median is %d&quot;, getMedian(ar1, ar2, n1));\r\n    else\r\n        printf(&quot;Doesn\'t work for arrays of unequal size&quot;);\r\n\r\n    getchar();\r\n    return 0;\r\n}\r\n</pre>\n<p>Time Complexity: O(logn)<br />\nAlgorithmic Paradigm: Divide and Conquer</p>\n<p>The above solutions can be optimized for the cases when all elements of one array are smaller than all elements of other array.  For example, in method 3, we can change the getMedian() function to following so that these cases can be handled in O(1) time. Thanks to <a href="http://www.geeksforgeeks.org/archives/2105/comment-page-1#comment-2729">nutcracker </a> for suggesting this optimization.</p>\n<pre class="brush: cpp; title: ; notranslate" title="">\r\n/* This function returns median of ar1[] and ar2[].\r\n   Assumptions in this function:\r\n   Both ar1[] and ar2[] are sorted arrays\r\n   Both have n elements */\r\nint getMedian(int ar1[], int ar2[], int n)\r\n{\r\n   // If all elements of array 1 are smaller then\r\n   // median is average of last element of ar1 and\r\n   // first element of ar2\r\n   if (ar1[n-1] &lt; ar2[0])\r\n     return (ar1[n-1]+ar2[0])/2;\r\n\r\n   // If all elements of array 1 are smaller then\r\n   // median is average of first element of ar1 and\r\n   // last element of ar2\r\n   if (ar2[n-1] &lt; ar1[0])\r\n     return (ar2[n-1]+ar1[0])/2;\r\n\r\n   return getMedianRec(ar1, ar2, 0, n-1, n);\r\n}\r\n</pre>\n<p><strong>References:</strong><br />\n<a href="http://en.wikipedia.org/wiki/Median">http://en.wikipedia.org/wiki/Median</a></p>\n<p><a href="http://ocw.alfaisal.edu/NR/rdonlyres/Electrical-Engineering-and-Computer-Science/6-046JFall-2005/30C68118-E436-4FE3-8C79-6BAFBB07D935/0/ps9sol.pdf">http://ocw.alfaisal.edu/NR/rdonlyres/Electrical-Engineering-and-Computer-Science/6-046JFall-2005/30C68118-E436-4FE3-8C79-6BAFBB07D935/0/ps9sol.pdf ds3etph5wn</a></p>\n<p>Asked by Snehal</p>\n<p>Please write comments if you find the above codes/algorithms incorrect, or find other ways to solve the same problem.</p>\n\r\n\t\t\t<script async src="//pagead2.googlesyndication.com/pagead/js/adsbygoogle.js"></script>\r\n<!-- Big Rectangle Blog Bottom -->\r\n<ins class="adsbygoogle"\r\n     style="display:inline-block;width:336px;height:280px"\r\n     data-ad-client="ca-pub-9465609616171866"\r\n     data-ad-slot="4061219431"></ins>\r\n<script>\r\n(adsbygoogle = window.adsbygoogle || []).push({});\r\n</script>\r\n<br></br>\r\n\t\t</div><!-- .entry-content -->\r\n\t\t\t\t\r\n\t\t\r\n\r\n\t\t<footer class="entry-meta">\r\n\t\t<span class="post-comment"><a href="http://www.geeksforgeeks.org/median-of-two-sorted-arrays/#comments" class="commentslink" ><span class="dsq-postid" data-dsqidentifier="2105 http://geeksforgeeks.org/?p=2105">91 Comments</span></a> <!--added for comments by Shubham-->\r\n\t\t</span><span>Category: <a href="http://www.geeksforgeeks.org/category/algorithm/divide-and-conquer/" rel="category tag">Divide and Conquer</a> <a href="http://www.geeksforgeeks.org/category/algorithm/searching/" rel="category tag">Searching</a></span> <span>Tags: <a href="http://www.geeksforgeeks.org/tag/divide-and-conquer/" rel="tag">Divide and Conquer</a></span> \r\n           \t          \t\r\n\t\t\t\t\t</footer><!-- .entry-meta -->\r\n\t</article><!-- #post -->\r\n<div class="related_posts"><h3>Related Posts:</h3><ul><li><a href="http://www.geeksforgeeks.org/square-root-of-an-integer/" title="Square root of an integer">Square root of an integer</a></li><li><a href="http://www.geeksforgeeks.org/find-the-element-that-appears-once-in-a-sorted-array/" title="Find the element that appears once in a sorted array">Find the element that appears once in a sorted array</a></li><li><a href="http://www.geeksforgeeks.org/divide-and-conquer-set-7-the-skyline-problem/" title="Divide and Conquer | Set 7 (The Skyline Problem)">Divide and Conquer | Set 7 (The Skyline Problem)</a></li><li><a href="http://www.geeksforgeeks.org/divide-and-conquer-set-6-tiling-problem/" title="Divide and Conquer | Set 6 (Tiling Problem)">Divide and Conquer | Set 6 (Tiling Problem)</a></li><li><a href="http://www.geeksforgeeks.org/find-missing-number-arithmetic-progression/" title="Find the missing number in Arithmetic Progression">Find the missing number in Arithmetic Progression</a></li><li><a href="http://www.geeksforgeeks.org/multiply-two-polynomials-2/" title="Multiply two polynomials">Multiply two polynomials</a></li><li><a href="http://www.geeksforgeeks.org/divide-conquer-set-6-search-row-wise-column-wise-sorted-2d-array/" title="Divide and Conquer | Set 6 (Search in a Row-wise and Column-wise Sorted 2D Array)">Divide and Conquer | Set 6 (Search in a Row-wise and Column-wise Sorted 2D Array)</a></li><li><a href="http://www.geeksforgeeks.org/find-number-zeroes/" title="Find the number of zeroes">Find the number of zeroes</a></li></ul></div><br></br>\r\n\r\n<!-- Added on 29 Oct 2015 for next and previous from same category -->\r\n<nav class="nav-single">\r\n\t\t\t\t\t<div class="assistive-text">Post navigation</div>\r\n\t\t\t\t\t<span class="nav-previous"><a href="http://www.geeksforgeeks.org/search-an-element-in-a-sorted-and-pivoted-array/" rel="prev">Previous post in category</a></span>\r\n\t\t\t\t\t<span class="nav-next"><a href="http://www.geeksforgeeks.org/counting-inversions/" rel="next">Next post in category</a></span>\r\n\t\t\t\t</nav><!-- .nav-single -->\r\n\r\n\r\n<script src="https://ajax.googleapis.com/ajax/libs/jquery/2.1.4/jquery.min.js"></script>\r\n    <script type="text/javascript">\r\n    $(document).ready(function(){\r\n        $.ajax({\r\n            url:"http://courses.geeksforgeeks.org/plugin.php",\r\n            method:"POST",\r\n            dataType:"json",\r\n            data:{post_id:$("#ratePlugin").attr("pid"),url:window.location.href},\r\n            xhrFields:{withCredentials:true},\r\n            success:function(response){\r\n                $("#ratePlugin").html(response.rate);\r\n                $("#markPlugin").html(response.mark);\r\n            },\r\n            complete:function(){\r\n                $(".box").click(function(){\r\n                    rrequest({post_id:$("#ratePlugin").attr("pid"),post_title:$("#ratePlugin").attr("ptitle"),rating:$(this).attr("rating"),url:window.location.href});\r\n                });\r\n                $(".mark").click(function(){\r\n                    mrequest({post_id:$("#markPlugin").attr("pid"),post_title:$("#markPlugin").attr("ptitle"),op:$(this).attr("id"),url:window.location.href});\r\n                });\r\n            }\r\n        });\r\n        function rrequest(payload){\r\n            $.ajax({\r\n                url:"http://courses.geeksforgeeks.org/gfgRatings.php",\r\n                method:"POST",\r\n                dataType:"html",\r\n                data:payload,\r\n                xhrFields:{withCredentials:true},\r\n                success:function(response){\r\n                    $("#ratePlugin").html(response);\r\n                },\r\n                complete:function(){\r\n                    $(".box").click(function(){\r\n                        rrequest({post_id:$("#ratePlugin").attr("pid"),post_title:$("#ratePlugin").attr("ptitle"),rating:$(this).attr("rating"),url:window.location.href});\r\n                    });\r\n                }\r\n            });\r\n        }\r\n        //rrequest({post_id:$("#ratePlugin").attr("pid"),url:window.location.href});\r\n        function mrequest(payload){\r\n            $.ajax({\r\n                url:"http://courses.geeksforgeeks.org/gfgMarking.php",\r\n                method:"POST",\r\n                dataType:"html",\r\n                data:payload,\r\n                xhrFields:{withCredentials:true},\r\n                success:function(response){\r\n                    $("#markPlugin").html(response);\r\n                },\r\n                complete:function(){\r\n                    $(".mark").click(function(){\r\n                        mrequest({post_id:$("#markPlugin").attr("pid"),post_title:$("#markPlugin").attr("ptitle"),op:$(this).attr("id"),url:window.location.href});\r\n                    });\r\n                }\r\n            });\r\n        }\r\n        //mrequest({post_id:$("#markPlugin").attr("pid"),url:window.location.href});\r\n    });\r\n</script>\r\n\r\n<div class="plugins">\r\n<div pid="2105" ptitle="Median of two sorted arrays" id="ratePlugin"></div>\r\n<div pid="2105" ptitle="Median of two sorted arrays" id="markPlugin"></div>\r\n</div>\r\n\r\n<br></br>\r\n\r\n<script>\r\n  window.fbAsyncInit=function() {\r\n    FB.init({\r\n      appId      : \\\'380853768781431\\\',\r\n      xfbml      : true,\r\n      version    : \\\'v2.3\\\'\r\n    });\r\n  };\r\n\r\n  (function(d, s, id){\r\n     var js, fjs = d.getElementsByTagName(s)[0];\r\n     if (d.getElementById(id)) {return;}\r\n     js = d.createElement(s); js.id = id;\r\n     js.src = "//connect.facebook.net/en_US/sdk.js";\r\n     fjs.parentNode.insertBefore(js, fjs);\r\n   }(document, \\\'script\\\', \\\'facebook-jssdk\\\'));\r\n</script>\r\n<div class="fb-like" data-share="true" data-width="450" data-show-faces="true"></div>\r\n\r\n<br></br>\r\n<p>Writing code in comment? Please use <a href="http://code.geeksforgeeks.org/">code.geeksforgeeks.org</a>, generate link and share the link here.</a>\r\n\t\t\t\t\r\n<div id="disqus_thread">\r\n            <div id="dsq-content">\r\n\r\n\r\n            <ul id="dsq-comments">\r\n                    <li class="comment even thread-even depth-1" id="dsq-comment-36554">\r\n        <div id="dsq-comment-header-36554" class="dsq-comment-header">\r\n            <cite id="dsq-cite-36554">\r\n                <span id="dsq-author-user-36554">Amarnath Raju Vysyaraju</span>\r\n            </cite>\r\n        </div>\r\n        <div id="dsq-comment-body-36554" class="dsq-comment-body">\r\n            <div id="dsq-comment-message-36554" class="dsq-comment-message"><p>Will the above methods work for this case :{1,2,3,9,10} .</p>\n<p>Why are we assuming both that the median should come from both the arrays? Isn&#8217;t this assumption wrong ?</p>\n</div>\r\n        </div>\r\n\r\n    </li><!-- #comment-## -->\n    <li class="comment odd alt thread-odd thread-alt depth-1" id="dsq-comment-35657">\r\n        <div id="dsq-comment-header-35657" class="dsq-comment-header">\r\n            <cite id="dsq-cite-35657">\r\n                <span id="dsq-author-user-35657">kinshuk chandra</span>\r\n            </cite>\r\n        </div>\r\n        <div id="dsq-comment-body-35657" class="dsq-comment-body">\r\n            <div id="dsq-comment-message-35657" class="dsq-comment-message"><p>Begin with ar1 and ar2, and let m1 and m2 be the 2 medians respectively and let M be actual median.<br />\nM will lie between m1 and m2. If m1 &amp; gt;<br />\nm2 =&gt; M lies between m2 to m1, so all elements less than m1 but<br />\nmore than m2, hence first half of ar1 and 2nd half of ar2. Likewise for<br />\nm2&gt;m1. and go on until number of elements are 2. Here is the post &#8211; <a href="http://k2code.blogspot.in/2011/09/median-of-2-sorted-arrays.html" rel="nofollow">http://k2code.blogspot.in/2011/09/median-of-2-sorted-arrays.html</a></p>\n</div>\r\n        </div>\r\n\r\n    </li><!-- #comment-## -->\n    <li class="comment even thread-even depth-1" id="dsq-comment-35655">\r\n        <div id="dsq-comment-header-35655" class="dsq-comment-header">\r\n            <cite id="dsq-cite-35655">\r\n                <span id="dsq-author-user-35655">guest</span>\r\n            </cite>\r\n        </div>\r\n        <div id="dsq-comment-body-35655" class="dsq-comment-body">\r\n            <div id="dsq-comment-message-35655" class="dsq-comment-message"><p>we can simply first calculate the median of the two small arrays then take the average of the two medians to give the median of 2n array<br />\narr1-&gt; median m1<br />\narr2-&gt;median m2<br />\nfinal arr3[arr1..ar2]-&gt;(m1+m2)/2<br />\ngives median of arr3</p>\n</div>\r\n        </div>\r\n\r\n    <ul class="children">\n    <li class="comment odd alt depth-2" id="dsq-comment-35689">\r\n        <div id="dsq-comment-header-35689" class="dsq-comment-header">\r\n            <cite id="dsq-cite-35689">\r\n                <span id="dsq-author-user-35689">wliao</span>\r\n            </cite>\r\n        </div>\r\n        <div id="dsq-comment-body-35689" class="dsq-comment-body">\r\n            <div id="dsq-comment-message-35689" class="dsq-comment-message"><p>wouldn&#8217;t work for {1, 2, 15, 90, 100}, {4,5,6,7,8}</p>\n</div>\r\n        </div>\r\n\r\n    </li><!-- #comment-## -->\n</ul><!-- .children -->\n</li><!-- #comment-## -->\n    <li class="comment even thread-odd thread-alt depth-1" id="dsq-comment-34011">\r\n        <div id="dsq-comment-header-34011" class="dsq-comment-header">\r\n            <cite id="dsq-cite-34011">\r\n                <span id="dsq-author-user-34011">Guest</span>\r\n            </cite>\r\n        </div>\r\n        <div id="dsq-comment-body-34011" class="dsq-comment-body">\r\n            <div id="dsq-comment-message-34011" class="dsq-comment-message"><p>Please explain how method 3 would work on following input:<br />\nArray1: 1 2 3 4 5<br />\nArray2:  1 2 4 5 6<br />\nMedian should be (3+4)/2 but through method 3, it comes out to be (2+4)/2. Am I going wrong somewhere ?</p>\n</div>\r\n        </div>\r\n\r\n    </li><!-- #comment-## -->\n    <li class="comment odd alt thread-even depth-1" id="dsq-comment-33165">\r\n        <div id="dsq-comment-header-33165" class="dsq-comment-header">\r\n            <cite id="dsq-cite-33165">\r\n                <span id="dsq-author-user-33165">newCoder</span>\r\n            </cite>\r\n        </div>\r\n        <div id="dsq-comment-body-33165" class="dsq-comment-body">\r\n            <div id="dsq-comment-message-33165" class="dsq-comment-message"><p>/**<br />\n     * There are 2 sorted arrays A and B of size n each. Write an algorithm to<br />\n     * find the median of the array obtained after merging the above 2<br />\n     * arrays(i.e. array of length 2n). The complexity should be O(log(n))<br />\n     *<br />\n     * @param a<br />\n     *            {1,3,5,7,9}<br />\n     * @param b<br />\n     *            {2,4,6,8,10}<br />\n     *<br />\n     * @return average of the 2 medians from the merged array of length 2n.<br />\n     */<br />\n    public static int findMedian(int a[], int b[]) {<br />\n        assert a.length == b.length;</p>\n<p>        int n = a.length;</p>\n<p>        int low1 = 0;<br />\n        int low2 = 0;</p>\n<p>        while (n &gt; 2) {<br />\n            if (a[low1 + n &#8211; 1] &lt; b[low2]) {<br />\n                return (a[low1 + n &#8211; 1] + b[low2]) / 2;<br />\n            }</p>\n<p>            if (b[low2 + n &#8211; 1] &lt; a[low1]) {<br />\n                return (b[low2 + n &#8211; 1] + a[low1]) / 2;<br />\n            }</p>\n<p>            int m1 = median(a, n, low1);<br />\n            int m2 = median(b, n, low2);<br />\n            if (m1 == m2) {<br />\n                return m1;<br />\n            }</p>\n<p>            if (m1 &lt; m2) {<br />\n                low1 = low1 + (n &#8211; 1) / 2;<br />\n                n = n / 2 + 1;<br />\n            } else {<br />\n                low2 = low2 + (n &#8211; 1) / 2;<br />\n                n = n / 2 + 1;<br />\n            }<br />\n        }</p>\n<p>        if (n == 2) {<br />\n            return (Math.max(a[low1], b[low2]) + Math.min(a[low1 + 1],<br />\n                    b[low2 + 1])) / 2;<br />\n        }</p>\n<p>        if (n == 1) {<br />\n            return (a[low1] + b[low2]) / 2;<br />\n        }</p>\n<p>        return -1;<br />\n    }</p>\n</div>\r\n        </div>\r\n\r\n    </li><!-- #comment-## -->\n    <li class="comment even thread-odd thread-alt depth-1" id="dsq-comment-33001">\r\n        <div id="dsq-comment-header-33001" class="dsq-comment-header">\r\n            <cite id="dsq-cite-33001">\r\n                <span id="dsq-author-user-33001">Allen</span>\r\n            </cite>\r\n        </div>\r\n        <div id="dsq-comment-body-33001" class="dsq-comment-body">\r\n            <div id="dsq-comment-message-33001" class="dsq-comment-message"><p>How do we know the median of two smaller array is still the median of the two original array in method 3 ?</p>\n</div>\r\n        </div>\r\n\r\n    <ul class="children">\n    <li class="comment odd alt depth-2" id="dsq-comment-33880">\r\n        <div id="dsq-comment-header-33880" class="dsq-comment-header">\r\n            <cite id="dsq-cite-33880">\r\n                <span id="dsq-author-user-33880">Rohit Sharma</span>\r\n            </cite>\r\n        </div>\r\n        <div id="dsq-comment-body-33880" class="dsq-comment-body">\r\n            <div id="dsq-comment-message-33880" class="dsq-comment-message"><p>if distribution is uniform i.e. elements of array have merged alternatively<br />\n.</p>\n</div>\r\n        </div>\r\n\r\n    </li><!-- #comment-## -->\n</ul><!-- .children -->\n</li><!-- #comment-## -->\n    <li class="comment even thread-even depth-1" id="dsq-comment-32910">\r\n        <div id="dsq-comment-header-32910" class="dsq-comment-header">\r\n            <cite id="dsq-cite-32910">\r\n                <span id="dsq-author-user-32910">james</span>\r\n            </cite>\r\n        </div>\r\n        <div id="dsq-comment-body-32910" class="dsq-comment-body">\r\n            <div id="dsq-comment-message-32910" class="dsq-comment-message"><p>So what if i want to find the 5th largest number of the two array with out merging the two arrays.</p>\n</div>\r\n        </div>\r\n\r\n    </li><!-- #comment-## -->\n    <li class="comment odd alt thread-odd thread-alt depth-1" id="dsq-comment-32622">\r\n        <div id="dsq-comment-header-32622" class="dsq-comment-header">\r\n            <cite id="dsq-cite-32622">\r\n                <span id="dsq-author-user-32622">Timothy</span>\r\n            </cite>\r\n        </div>\r\n        <div id="dsq-comment-body-32622" class="dsq-comment-body">\r\n            <div id="dsq-comment-message-32622" class="dsq-comment-message"><p>What about two different sized lists?<br />\nIf you have {1,2,3} and {4,5,6,7,8,9,10} the correct median should be 5 but when you remove {1,7,8,9,10} during the recursive algorithm, the algorithm will try to find the median for {2,3} and {5,6,7,8,9,10} and return that, which is 6.</p>\n</div>\r\n        </div>\r\n\r\n    </li><!-- #comment-## -->\n    <li class="comment even thread-even depth-1" id="dsq-comment-31875">\r\n        <div id="dsq-comment-header-31875" class="dsq-comment-header">\r\n            <cite id="dsq-cite-31875">\r\n                <span id="dsq-author-user-31875">Guest</span>\r\n            </cite>\r\n        </div>\r\n        <div id="dsq-comment-body-31875" class="dsq-comment-body">\r\n            <div id="dsq-comment-message-31875" class="dsq-comment-message"><p>How would this work on input<br />\nArray 1:  1, 2, 7, 8<br />\nArray 2:  3, 4, 5, 6</p>\n<p>Median of the two arrays is (4 + 5) / 2, but the algorithm would get rid of either 4 or 5 in first run. Or am i missing something?</p>\n</div>\r\n        </div>\r\n\r\n    <ul class="children">\n    <li class="comment odd alt depth-2" id="dsq-comment-31877">\r\n        <div id="dsq-comment-header-31877" class="dsq-comment-header">\r\n            <cite id="dsq-cite-31877">\r\n                <span id="dsq-author-user-31877">Eric Mengqi Han</span>\r\n            </cite>\r\n        </div>\r\n        <div id="dsq-comment-body-31877" class="dsq-comment-body">\r\n            <div id="dsq-comment-message-31877" class="dsq-comment-message"><p>Array 1: [1, 2, 8, 9]<br />\nArray 2: [3, 4, 5, 6]</p>\n<p>m1 = 5<br />\nm2 = 4.5<br />\nm1 &gt; m2</p>\n<p>Array 1: [8, 9]<br />\nArray 2: [3, 4]</p>\n<p>&#8230;</p>\n</div>\r\n        </div>\r\n\r\n    <ul class="children">\n    <li class="comment even depth-3" id="dsq-comment-32159">\r\n        <div id="dsq-comment-header-32159" class="dsq-comment-header">\r\n            <cite id="dsq-cite-32159">\r\n                <span id="dsq-author-user-32159">gourav pathak</span>\r\n            </cite>\r\n        </div>\r\n        <div id="dsq-comment-body-32159" class="dsq-comment-body">\r\n            <div id="dsq-comment-message-32159" class="dsq-comment-message"><p>Here Array 1 would be [2,8,9] and Array 2 would be [3,4,5]&#8230;..Take a closer look at the code</p>\n</div>\r\n        </div>\r\n\r\n    </li><!-- #comment-## -->\n</ul><!-- .children -->\n</li><!-- #comment-## -->\n    <li class="comment odd alt depth-2" id="dsq-comment-32158">\r\n        <div id="dsq-comment-header-32158" class="dsq-comment-header">\r\n            <cite id="dsq-cite-32158">\r\n                <span id="dsq-author-user-32158">gourav pathak</span>\r\n            </cite>\r\n        </div>\r\n        <div id="dsq-comment-body-32158" class="dsq-comment-body">\r\n            <div id="dsq-comment-message-32158" class="dsq-comment-message"><p>Here repeating elements are also counted&#8230;So the median is (3+4)/2<br />\nas merged array is {1,1,2,2,3,4,5,6,7,8} and not {1,2,3,4,5,6,7,8}(which you are probably referring to in your comment)</p>\n</div>\r\n        </div>\r\n\r\n    </li><!-- #comment-## -->\n</ul><!-- .children -->\n</li><!-- #comment-## -->\n    <li class="comment even thread-odd thread-alt depth-1" id="dsq-comment-30113">\r\n        <div id="dsq-comment-header-30113" class="dsq-comment-header">\r\n            <cite id="dsq-cite-30113">\r\n                <span id="dsq-author-user-30113">Mangat Rai</span>\r\n            </cite>\r\n        </div>\r\n        <div id="dsq-comment-body-30113" class="dsq-comment-body">\r\n            <div id="dsq-comment-message-30113" class="dsq-comment-message"><p>You have taken a very big assumptions that both A &amp; B have n elements. But if say they both have unequal elements say m,n respectively which again can be odd or even, the problem will become considerably difficult. There will be huge no. of cases to handle.</p>\n</div>\r\n        </div>\r\n\r\n    <ul class="children">\n    <li class="comment odd alt depth-2" id="dsq-comment-30577">\r\n        <div id="dsq-comment-header-30577" class="dsq-comment-header">\r\n            <cite id="dsq-cite-30577">\r\n                <span id="dsq-author-user-30577">Son L</span>\r\n            </cite>\r\n        </div>\r\n        <div id="dsq-comment-body-30577" class="dsq-comment-body">\r\n            <div id="dsq-comment-message-30577" class="dsq-comment-message"><p>It&#8217;s actually not much more difficult. 40 lines will be enough.</p>\n</div>\r\n        </div>\r\n\r\n    <ul class="children">\n    <li class="comment even depth-3" id="dsq-comment-30618">\r\n        <div id="dsq-comment-header-30618" class="dsq-comment-header">\r\n            <cite id="dsq-cite-30618">\r\n                <span id="dsq-author-user-30618">Mangat Rai</span>\r\n            </cite>\r\n        </div>\r\n        <div id="dsq-comment-body-30618" class="dsq-comment-body">\r\n            <div id="dsq-comment-message-30618" class="dsq-comment-message"><p>My point is that the problem is difficult compared to the ones discuss. They are more general case and should be discussed here. By the way &#8211; can you give a brief approach to solve it? I have solved it by following way &#8211;<br />\n######<br />\n1. Compare medians( compare 2 middle elements from each  if even) and get the part which may hold median<br />\n2. remove minimum even no of elements on both side. This way odd and even will maintain their property<br />\n#######</p>\n</div>\r\n        </div>\r\n\r\n    <ul class="children">\n    <li class="comment odd alt depth-4" id="dsq-comment-30736">\r\n        <div id="dsq-comment-header-30736" class="dsq-comment-header">\r\n            <cite id="dsq-cite-30736">\r\n                <span id="dsq-author-user-30736">anju</span>\r\n            </cite>\r\n        </div>\r\n        <div id="dsq-comment-body-30736" class="dsq-comment-body">\r\n            <div id="dsq-comment-message-30736" class="dsq-comment-message"><p>i think u must refer this</p>\n<p><a href="http://bit.ly/1biTdXo" rel="nofollow">http://bit.ly/1biTdXo</a></p>\n</div>\r\n        </div>\r\n\r\n    <ul class="children">\n    <li class="comment even depth-5" id="dsq-comment-36264">\r\n        <div id="dsq-comment-header-36264" class="dsq-comment-header">\r\n            <cite id="dsq-cite-36264">\r\n                <span id="dsq-author-user-36264">Mangat Rai</span>\r\n            </cite>\r\n        </div>\r\n        <div id="dsq-comment-body-36264" class="dsq-comment-body">\r\n            <div id="dsq-comment-message-36264" class="dsq-comment-message"><p>@anju Thank you for spamming!<br />\nGuys the above link is malicious. don&#8217;t click!</p>\n</div>\r\n        </div>\r\n\r\n    </li><!-- #comment-## -->\n</ul><!-- .children -->\n</li><!-- #comment-## -->\n</ul><!-- .children -->\n</li><!-- #comment-## -->\n</ul><!-- .children -->\n</li><!-- #comment-## -->\n</ul><!-- .children -->\n</li><!-- #comment-## -->\n    <li class="comment odd alt thread-even depth-1" id="dsq-comment-27772">\r\n        <div id="dsq-comment-header-27772" class="dsq-comment-header">\r\n            <cite id="dsq-cite-27772">\r\n                <span id="dsq-author-user-27772">Marsha Donna</span>\r\n            </cite>\r\n        </div>\r\n        <div id="dsq-comment-body-27772" class="dsq-comment-body">\r\n            <div id="dsq-comment-message-27772" class="dsq-comment-message"><p>in method 2 can someone pls explain..</p>\n<p>if (m1 &lt; m2)<br />\n    {<br />\n        if (n % 2 == 0)<br />\n            return getMedian(ar1 + n/2 &#8211; 1, ar2, n &#8211; n/2 +1);<br />\n        else<br />\n            return getMedian(ar1 + n/2, ar2, n &#8211; n/2);<br />\n    }</p>\n</div>\r\n        </div>\r\n\r\n    </li><!-- #comment-## -->\n    <li class="comment even thread-odd thread-alt depth-1" id="dsq-comment-27771">\r\n        <div id="dsq-comment-header-27771" class="dsq-comment-header">\r\n            <cite id="dsq-cite-27771">\r\n                <span id="dsq-author-user-27771">Marsha Donna</span>\r\n            </cite>\r\n        </div>\r\n        <div id="dsq-comment-body-27771" class="dsq-comment-body">\r\n            <div id="dsq-comment-message-27771" class="dsq-comment-message"><p>in method 2 can sumone  pls explain<br />\n if (m1 &lt; m2)<br />\n    {<br />\n        if (n % 2 == 0)<br />\n            return getMedian(ar1 + n/2 &#8211; 1, ar2, n &#8211; n/2 +1);<br />\n        else<br />\n            return getMedian(ar1 + n/2, ar2, n &#8211; n/2);<br />\n    }</p>\n</div>\r\n        </div>\r\n\r\n    </li><!-- #comment-## -->\n<ul class="children">\n    <li class="comment odd alt depth-2" id="dsq-comment-32160">\r\n        <div id="dsq-comment-header-32160" class="dsq-comment-header">\r\n            <cite id="dsq-cite-32160">\r\n                <span id="dsq-author-user-32160">gourav pathak</span>\r\n            </cite>\r\n        </div>\r\n        <div id="dsq-comment-body-32160" class="dsq-comment-body">\r\n            <div id="dsq-comment-message-32160" class="dsq-comment-message"><p>No m1=(5+7)/2 and m2=(6+8)/2 so arr1={5,7,9,11} and arr2={2,4,6,8}&#8230;.The construction of the solution is such that at each recursive call arr1 and arr2 contain same number of elements&#8230;.There&#8217;s no question of having different number of elements in arr1 and arr2</p>\n</div>\r\n        </div>\r\n\r\n    </li><!-- #comment-## -->\n</ul><!-- .children -->\n</li><!-- #comment-## -->\n    <li class="comment even thread-even depth-1" id="dsq-comment-22686">\r\n        <div id="dsq-comment-header-22686" class="dsq-comment-header">\r\n            <cite id="dsq-cite-22686">\r\n                <span id="dsq-author-user-22686">trying</span>\r\n            </cite>\r\n        </div>\r\n        <div id="dsq-comment-body-22686" class="dsq-comment-body">\r\n            <div id="dsq-comment-message-22686" class="dsq-comment-message"><p>please check method 2<br />\na1[]={2,10,15}<br />\na2[] = {4, 12, 20}.</p>\n<p>for the above input median of a1 = 10 and median of a2 is 12 no as the median of a2 &gt; a1 so we will take 15 from a1 and 4 from a2. So the median is 4+15/2 = 9.5 which is incorrect instead of 10+12/2=11. please check. thanks.</p>\n</div>\r\n        </div>\r\n\r\n    <ul class="children">\n    <li class="comment odd alt depth-2" id="dsq-comment-28596">\r\n        <div id="dsq-comment-header-28596" class="dsq-comment-header">\r\n            <cite id="dsq-cite-28596">\r\n                <span id="dsq-author-user-28596">falcon</span>\r\n            </cite>\r\n        </div>\r\n        <div id="dsq-comment-body-28596" class="dsq-comment-body">\r\n            <div id="dsq-comment-message-28596" class="dsq-comment-message"><p>dude just check condition in 2nd method if a2&gt;a1 you will take 10,15 from a1 and 4,12 from a2. now<br />\nmedian = (max(a1[0], a2[0]) + min(a1[1], a2[1]))/2</p>\n</div>\r\n        </div>\r\n\r\n    </li><!-- #comment-## -->\n</ul><!-- .children -->\n</li><!-- #comment-## -->\n</li><!-- #comment-## -->\n    <li class="comment even thread-odd thread-alt depth-1" id="dsq-comment-19018">\r\n        <div id="dsq-comment-header-19018" class="dsq-comment-header">\r\n            <cite id="dsq-cite-19018">\r\n                <span id="dsq-author-user-19018">Soumya</span>\r\n            </cite>\r\n        </div>\r\n        <div id="dsq-comment-body-19018" class="dsq-comment-body">\r\n            <div id="dsq-comment-message-19018" class="dsq-comment-message"><pre> <code language="C">\n    /* Recursion terminates here.*/\n    if (ar1[i] &gt; ar2[j] &amp;&amp; (j == n-1 || ar1[i] &lt;= ar2[j+1]))\n    {\n        /*ar1[i] is decided as median 2, now select the median 1\n           (element just before ar1[i] in merged array) to get the\n           average of both*/\n        if (ar2[j] &gt; ar1[i-1] || i == 0)\n            return (ar1[i] + ar2[j])/2;\n        else\n            return (ar1[i] + ar1[i-1])/2;\n    }\n</code> </pre>\n<p>if (ar2[j] &gt; ar1[i-1] || i == 0) condition may produce unexpected result if i=0. I think we should check i==0 first.</p>\n<p>Correct me if I am wrong.</p>\n</div>\r\n        </div>\r\n\r\n    <ul class="children">\n    <li class="comment byuser comment-author-geeksforgeeks bypostauthor odd alt depth-2" id="dsq-comment-19022">\r\n        <div id="dsq-comment-header-19022" class="dsq-comment-header">\r\n            <cite id="dsq-cite-19022">\r\n                <span id="dsq-author-user-19022">GeeksforGeeks</span>\r\n            </cite>\r\n        </div>\r\n        <div id="dsq-comment-body-19022" class="dsq-comment-body">\r\n            <div id="dsq-comment-message-19022" class="dsq-comment-message"><p>Thanks for pointing this out. We have updated the code.</p>\n</div>\r\n        </div>\r\n\r\n    <ul class="children">\n    <li class="comment even depth-3" id="dsq-comment-25129">\r\n        <div id="dsq-comment-header-25129" class="dsq-comment-header">\r\n            <cite id="dsq-cite-25129">\r\n                <span id="dsq-author-user-25129">indra kumar</span>\r\n            </cite>\r\n        </div>\r\n        <div id="dsq-comment-body-25129" class="dsq-comment-body">\r\n            <div id="dsq-comment-message-25129" class="dsq-comment-message"><p>please check 2nd method for test case arr1={1,3,5,7,9,11},arr2={2,4,6,8,10,12}, it is giving wrong answer&#8230;..</p>\n</div>\r\n        </div>\r\n\r\n    </li><!-- #comment-## -->\n</ul><!-- .children -->\n</li><!-- #comment-## -->\n</ul><!-- .children -->\n</li><!-- #comment-## -->\n    <li class="comment odd alt thread-even depth-1" id="dsq-comment-18291">\r\n        <div id="dsq-comment-header-18291" class="dsq-comment-header">\r\n            <cite id="dsq-cite-18291">\r\n                <span id="dsq-author-user-18291">Jack</span>\r\n            </cite>\r\n        </div>\r\n        <div id="dsq-comment-body-18291" class="dsq-comment-body">\r\n            <div id="dsq-comment-message-18291" class="dsq-comment-message"><p>In method 3, it is written that:<br />\n&#8220;The basic idea is that if you are given two arrays ar1[] and ar2[] and know the length of each, you can check whether an element ar1[i] is the median in constant time.&#8221;</p>\n<p>How is this possible in constant time?</p>\n</div>\r\n        </div>\r\n\r\n    <ul class="children">\n    <li class="comment byuser comment-author-geeksforgeeks bypostauthor even depth-2" id="dsq-comment-19023">\r\n        <div id="dsq-comment-header-19023" class="dsq-comment-header">\r\n            <cite id="dsq-cite-19023">\r\n                <span id="dsq-author-user-19023">GeeksforGeeks</span>\r\n            </cite>\r\n        </div>\r\n        <div id="dsq-comment-body-19023" class="dsq-comment-body">\r\n            <div id="dsq-comment-message-19023" class="dsq-comment-message"><p>Please see the next lines in post.</p>\n</div>\r\n        </div>\r\n\r\n    </li><!-- #comment-## -->\n</ul><!-- .children -->\n</li><!-- #comment-## -->\n    <li class="comment byuser comment-author-abhishek08aug odd alt thread-odd thread-alt depth-1" id="dsq-comment-17613">\r\n        <div id="dsq-comment-header-17613" class="dsq-comment-header">\r\n            <cite id="dsq-cite-17613">\r\n                <span id="dsq-author-user-17613">abhishek08aug</span>\r\n            </cite>\r\n        </div>\r\n        <div id="dsq-comment-body-17613" class="dsq-comment-body">\r\n            <div id="dsq-comment-message-17613" class="dsq-comment-message"><p>Intelligent <img src="http://d1gjlxt8vb0knt.cloudfront.net//wp-includes/images/smilies/simple-smile.png" alt=":)" class="wp-smiley" style="height: 1em; max-height: 1em;" /></p>\n<pre> <code language="C">\n/* Paste your code here (You may delete these lines if not writing code) */\n</code> </pre>\n</div>\r\n        </div>\r\n\r\n    </li><!-- #comment-## -->\n    <li class="comment even thread-even depth-1" id="dsq-comment-14941">\r\n        <div id="dsq-comment-header-14941" class="dsq-comment-header">\r\n            <cite id="dsq-cite-14941">\r\n                <span id="dsq-author-user-14941">shine</span>\r\n            </cite>\r\n        </div>\r\n        <div id="dsq-comment-body-14941" class="dsq-comment-body">\r\n            <div id="dsq-comment-message-14941" class="dsq-comment-message"><p>method 3 is not going to work always<br />\na1={1,4};a2={2,3};it will give 1 and 3 as output..<br />\ncorrect me if i am wrong&#8230;&#8230;</p>\n<pre> <code language="C">\n/* Paste your code here (You may delete these lines if not writing code) */\n</code> </pre>\n</div>\r\n        </div>\r\n\r\n    </li><!-- #comment-## -->\n    <li class="comment odd alt thread-odd thread-alt depth-1" id="dsq-comment-12317">\r\n        <div id="dsq-comment-header-12317" class="dsq-comment-header">\r\n            <cite id="dsq-cite-12317">\r\n                <span id="dsq-author-user-12317">HLS.nirma</span>\r\n            </cite>\r\n        </div>\r\n        <div id="dsq-comment-body-12317" class="dsq-comment-body">\r\n            <div id="dsq-comment-message-12317" class="dsq-comment-message"><p>Incorrect:<br />\nSince the array is sorted, it is greater than exactly i-1 values in array ar1[].</p>\n<pre> <code language="C">\nCorrect:\nSince the array is sorted, it is greater than exactly &quot;i&quot; values in array ar1[].\n</code> </pre>\n</div>\r\n        </div>\r\n\r\n    <ul class="children">\n    <li class="comment even depth-2" id="dsq-comment-12318">\r\n        <div id="dsq-comment-header-12318" class="dsq-comment-header">\r\n            <cite id="dsq-cite-12318">\r\n                <span id="dsq-author-user-12318">HLS.nirma</span>\r\n            </cite>\r\n        </div>\r\n        <div id="dsq-comment-body-12318" class="dsq-comment-body">\r\n            <div id="dsq-comment-message-12318" class="dsq-comment-message"><p>Kindly correct it in method 3 explanation.<br />\nThank you.</p>\n</div>\r\n        </div>\r\n\r\n    <ul class="children">\n    <li class="comment odd alt depth-3" id="dsq-comment-12319">\r\n        <div id="dsq-comment-header-12319" class="dsq-comment-header">\r\n            <cite id="dsq-cite-12319">\r\n                <span id="dsq-author-user-12319">HLS.nirma</span>\r\n            </cite>\r\n        </div>\r\n        <div id="dsq-comment-body-12319" class="dsq-comment-body">\r\n            <div id="dsq-comment-message-12319" class="dsq-comment-message"><p>One redundancy in method 3:</p>\n<p>else if (ar1[i] &gt; ar2[j] &amp;&amp; j != n-1 &amp;&amp; ar1[i] &gt; ar2[j+1])</p>\n<p>correct should be:<br />\nelse if (ar1[i] &gt; ar2[j] &amp;&amp; ar1[i] &gt; ar2[j+1])</p>\n<p>j=n-1 is already handled in the &#8220;if&#8221; above this &#8220;else if&#8221;</p>\n<p>Thank you.</p>\n</div>\r\n        </div>\r\n\r\n    </li><!-- #comment-## -->\n    <li class="comment even depth-3" id="dsq-comment-12470">\r\n        <div id="dsq-comment-header-12470" class="dsq-comment-header">\r\n            <cite id="dsq-cite-12470">\r\n                <span id="dsq-author-user-12470">Kartik</span>\r\n            </cite>\r\n        </div>\r\n        <div id="dsq-comment-body-12470" class="dsq-comment-body">\r\n            <div id="dsq-comment-message-12470" class="dsq-comment-message"><p>Thanks for pointing this out, we have corrected the explanation.</p>\n</div>\r\n        </div>\r\n\r\n    </li><!-- #comment-## -->\n</ul><!-- .children -->\n</li><!-- #comment-## -->\n</ul><!-- .children -->\n</li><!-- #comment-## -->\n    <li class="comment odd alt thread-even depth-1" id="dsq-comment-12261">\r\n        <div id="dsq-comment-header-12261" class="dsq-comment-header">\r\n            <cite id="dsq-cite-12261">\r\n                <span id="dsq-author-user-12261">Ravi</span>\r\n            </cite>\r\n        </div>\r\n        <div id="dsq-comment-body-12261" class="dsq-comment-body">\r\n            <div id="dsq-comment-message-12261" class="dsq-comment-message"><p>Can someone explain how to do this irrespective of length of both arrays. I mean let length of array1 be m and length of array2 be n, find median of 2 sorted arrays. we should not care if m = n or m != n.</p>\n</div>\r\n        </div>\r\n\r\n    </li><!-- #comment-## -->\n    <li class="comment even thread-odd thread-alt depth-1" id="dsq-comment-11331">\r\n        <div id="dsq-comment-header-11331" class="dsq-comment-header">\r\n            <cite id="dsq-cite-11331">\r\n                <span id="dsq-author-user-11331">Hary</span>\r\n            </cite>\r\n        </div>\r\n        <div id="dsq-comment-body-11331" class="dsq-comment-body">\r\n            <div id="dsq-comment-message-11331" class="dsq-comment-message"><p>I am not very sure about this in method 2</p>\n<pre> <code language="C">\nelse\n{\n     if (n % 2 == 0)\n        return getMedian(ar2 + n/2 - 1, ar1, n - n/2 + 1);\n     else\n       return getMedian(ar2 + n/2, ar1, n - n/2);\n} \n</code> </pre>\n<p>Do we really need to interchange the arrays. If so why?</p>\n</div>\r\n        </div>\r\n\r\n    <ul class="children">\n    <li class="comment odd alt depth-2" id="dsq-comment-11474">\r\n        <div id="dsq-comment-header-11474" class="dsq-comment-header">\r\n            <cite id="dsq-cite-11474">\r\n                <span id="dsq-author-user-11474">Karthik</span>\r\n            </cite>\r\n        </div>\r\n        <div id="dsq-comment-body-11474" class="dsq-comment-body">\r\n            <div id="dsq-comment-message-11474" class="dsq-comment-message"><pre> <code language="C">\n/* \n\nI think the third method does not work if you give similar arrays of odd length.\n\nsay a={1,2,3}  and b={1,2,3}\n\nwhen we call the function for the first time, left=0, right=2\nso i =1, j=3-1-1=1\n\nif (ar1[i] &gt; ar2[j] &amp;&amp; (j == n-1 || ar1[i] &lt;= ar2[j+1])) will be false since a[1]&gt;b[1] is false since both a[1] and b[1] are 2.\n\nso we have to call the function with left=2, right =2\nthen i=2, j =3-2-1=0\n\nif (ar1[i] &gt; ar2[j] &amp;&amp; (j == n-1 || ar1[i] &lt;= ar2[j+1]))  will be again false as neither j==2 nor a[2](3)&lt;b[1](2) so left will become 3 and right will be 2 \nthen we will change the order of arrays and call the function again .... but both arrays are same so order does not matter and the function will be called forever which results in a seg fault.\n\ncorrect me if i have missed any point :)\n\n\n\n\n\n\n\n */\n</code> </pre>\n</div>\r\n        </div>\r\n\r\n    </li><!-- #comment-## -->\n</ul><!-- .children -->\n</li><!-- #comment-## -->\n    <li class="comment even thread-even depth-1" id="dsq-comment-10650">\r\n        <div id="dsq-comment-header-10650" class="dsq-comment-header">\r\n            <cite id="dsq-cite-10650">\r\n                <span id="dsq-author-user-10650">Smart Pointer</span>\r\n            </cite>\r\n        </div>\r\n        <div id="dsq-comment-body-10650" class="dsq-comment-body">\r\n            <div id="dsq-comment-message-10650" class="dsq-comment-message"><p>@Geeksforgeeks, regarding method 2, do we really need to handle the case separately for odd &amp; even values of n? Below is my implementation which looks simple &amp; works for all cases( i think ).</p>\n<pre> <code language="C">\nfloat findMed(int A[], int B[], int n)\n{\n        if( n &lt;= 0 ) return FLT_MIN;\n \n        if( n == 1)\n                return (A[0] + B[0]) / 2.0;\n        if( n == 2 )\n                return (max(A[0],B[0]) + min(A[1],B[1])) / 2.0;\n        if( A[n-1] &lt; B[0] )\n                return (A[n-1] + B[0]) / 2.0;\n        if( B[n-1] &lt; A[0] )\n                return (A[0] + B[n-1]) / 2.0;\n \n        int medA = A[n/2];\n        int medB = B[n/2];\n \n        if(medA == medB)\n                return medA;\n        if( medA &lt; medB )\n                return findMed(A+n/2, B, n-n/2);\n        return findMed(A, B+n/2, n-n/2);\n}\n</code> </pre>\n<p>Check output here: <a href="http://ideone.com/owrHC" rel="nofollow">http://ideone.com/owrHC</a></p>\n<p>Please let me know if i am missing any cases to handle.</p>\n</div>\r\n        </div>\r\n\r\n    <ul class="children">\n    <li class="comment odd alt depth-2" id="dsq-comment-10657">\r\n        <div id="dsq-comment-header-10657" class="dsq-comment-header">\r\n            <cite id="dsq-cite-10657">\r\n                <span id="dsq-author-user-10657">GeeksforGeeks</span>\r\n            </cite>\r\n        </div>\r\n        <div id="dsq-comment-body-10657" class="dsq-comment-body">\r\n            <div id="dsq-comment-message-10657" class="dsq-comment-message"><p>Thanks for suggesting a simple code. The orginal code was modified to handle cases suggested by <a href="http://www.geeksforgeeks.org/archives/2105#comment-576" rel="nofollow">jntl</a>.  Does your code handle these cases?  Please let us know.</p>\n</div>\r\n        </div>\r\n\r\n    <ul class="children">\n    <li class="comment even depth-3" id="dsq-comment-10660">\r\n        <div id="dsq-comment-header-10660" class="dsq-comment-header">\r\n            <cite id="dsq-cite-10660">\r\n                <span id="dsq-author-user-10660">Smart Pointer</span>\r\n            </cite>\r\n        </div>\r\n        <div id="dsq-comment-body-10660" class="dsq-comment-body">\r\n            <div id="dsq-comment-message-10660" class="dsq-comment-message"><p>@Geeksforgeeks, a little modification in my code.<br />\nNow, it works well for all cases. It also handles the case given by jntl. The below implementation is easy to follow.</p>\n<pre> <code language="C">\nfloat findMed(int A[], int B[], int n)\n{\n        if( n &lt;= 0 ) return FLT_MIN;\n \n        if( n == 1)\n                return (A[0] + B[0]) / 2.0;\n        if( n == 2 )\n                return (max(A[0],B[0]) + min(A[1],B[1])) / 2.0;\n        if( A[n-1] &lt; B[0] )\n                return (A[n-1] + B[0]) / 2.0;\n        if( B[n-1] &lt; A[0] )\n                return (A[0] + B[n-1]) / 2.0;\n \n        int medA = A[(n-1)/2];\n        int medB = B[(n-1)/2];\n \n        if(medA == medB)\n                return medA;\n        if( medA &lt; medB )\n                return findMed(A+(n-1)/2, B, n/2 + 1);\n        return findMed(A, B+(n-1)/2, n/2 + 1);\n}\n</code> </pre>\n<p>Check output here: <a href="http://ideone.com/3q7O5" rel="nofollow">http://ideone.com/3q7O5</a></p>\n</div>\r\n        </div>\r\n\r\n    <ul class="children">\n    <li class="comment odd alt depth-4" id="dsq-comment-33164">\r\n        <div id="dsq-comment-header-33164" class="dsq-comment-header">\r\n            <cite id="dsq-cite-33164">\r\n                <span id="dsq-author-user-33164">newCoder</span>\r\n            </cite>\r\n        </div>\r\n        <div id="dsq-comment-body-33164" class="dsq-comment-body">\r\n            <div id="dsq-comment-message-33164" class="dsq-comment-message"><p>Yes this code works:</p>\n<p>I have come up with an iterative version of this :</p>\n<p>/**<br />\n     * There are 2 sorted arrays A and B of size n each. Write an algorithm to<br />\n     * find the median of the array obtained after merging the above 2<br />\n     * arrays(i.e. array of length 2n). The complexity should be O(log(n))<br />\n     *<br />\n     * @param a<br />\n     *            {1,3,5,7,9}<br />\n     * @param b<br />\n     *            {2,4,6,8,10}<br />\n     *<br />\n     * @return average of the 2 medians from the merged array of length 2n.<br />\n     */<br />\n    public static int findMedian(int a[], int b[]) {<br />\n        assert a.length == b.length;</p>\n<p>        int n = a.length;</p>\n<p>        int low1 = 0;<br />\n        int low2 = 0;</p>\n<p>        while (n &gt; 2) {<br />\n            if (a[low1 + n &#8211; 1] &lt; b[low2]) {<br />\n                return (a[low1 + n &#8211; 1] + b[low2]) / 2;<br />\n            }</p>\n<p>            if (b[low2 + n &#8211; 1] &lt; a[low1]) {<br />\n                return (b[low2 + n &#8211; 1] + a[low1]) / 2;<br />\n            }</p>\n<p>            int m1 = median(a, n, low1);<br />\n            int m2 = median(b, n, low2);<br />\n            if (m1 == m2) {<br />\n                return m1;<br />\n            }</p>\n<p>            if (m1 &lt; m2) {<br />\n                low1 = low1 + (n &#8211; 1) / 2;<br />\n                n = n / 2 + 1;<br />\n            } else {<br />\n                low2 = low2 + (n &#8211; 1) / 2;<br />\n                n = n / 2 + 1;<br />\n            }<br />\n        }</p>\n<p>        if (n == 2) {<br />\n            return (Math.max(a[low1], b[low2]) + Math.min(a[low1 + 1],<br />\n                    b[low2 + 1])) / 2;<br />\n        }</p>\n<p>        if (n == 1) {<br />\n            return (a[low1] + b[low2]) / 2;<br />\n        }</p>\n<p>        return -1;<br />\n    }</p>\n</div>\r\n        </div>\r\n\r\n    </li><!-- #comment-## -->\n</ul><!-- .children -->\n</li><!-- #comment-## -->\n</ul><!-- .children -->\n</li><!-- #comment-## -->\n</ul><!-- .children -->\n</li><!-- #comment-## -->\n    <li class="comment even thread-odd thread-alt depth-1" id="dsq-comment-10228">\r\n        <div id="dsq-comment-header-10228" class="dsq-comment-header">\r\n            <cite id="dsq-cite-10228">\r\n                <span id="dsq-author-user-10228">tutum</span>\r\n            </cite>\r\n        </div>\r\n        <div id="dsq-comment-body-10228" class="dsq-comment-body">\r\n            <div id="dsq-comment-message-10228" class="dsq-comment-message"><pre> <code language="C">\n/* \n#include&lt;stdio.h&gt;\nint size=8;\n\nint bsearch(int B[],int left,int right,int num)\n{\n      if(left==right){\n            return right;\n      }\n      int mid=(left+right)/2;\n      if(B[mid]&lt;=num &amp;&amp; B[mid+1]&gt;num){\n            return mid;\n      }\n      if(B[mid]&lt;num &amp;&amp; B[mid+1]&lt;num){\n            bsearch(B,mid,right,num);\n      }else{\n            bsearch(B,left,mid,num);\n      }\n\n}\n\nint find_median(int A[],int B[],int left,int right)\n{\n      if(left==right){\n            return -1;\n      }\n      int mid=(left+right)/2;\n      int required_index=size-mid-1;\n      int indx=bsearch(B,0,size-1,A[mid]);\n      printf(&quot;%d\\n&quot;,indx);\n      if(indx==required_index){\n            return A[mid];\n      }\n      if(indx&lt;required_index){\n            find_median(A,B,mid+1,right);\n      }else{\n            find_median(A,B,left,mid);\n      }\n\n}\nint main()\n{\n      int flag=0;\n      int A[]={2,3,5,7,8,19,23,35};\n      int B[]={36,37,38,39,50,55,56,57};\n      if(A[0]&gt;B[size-1]){\n            printf(&quot;%d&quot;,A[0]);\n            flag=1;\n      }\n      if(B[0]&gt;A[size-1]){\n            printf(&quot;%d&quot;,B[0]);\n            flag=1;\n      }\n      if(flag!=1){\n            int indx;\n            indx=find_median(A,B,0,size-1);\n            if(indx==-1){\n                  indx=find_median(B,A,0,size-1);\n                  printf(&quot;%d\\n&quot;,indx);\n            }else{\n                  printf(&quot;%d\\n&quot;,indx);\n            }\n      }\n\nreturn 0;\n}\n */\n</code> </pre>\n</div>\r\n        </div>\r\n\r\n    </li><!-- #comment-## -->\n    <li class="comment odd alt thread-even depth-1" id="dsq-comment-10145">\r\n        <div id="dsq-comment-header-10145" class="dsq-comment-header">\r\n            <cite id="dsq-cite-10145">\r\n                <span id="dsq-author-user-10145">adarsh</span>\r\n            </cite>\r\n        </div>\r\n        <div id="dsq-comment-body-10145" class="dsq-comment-body">\r\n            <div id="dsq-comment-message-10145" class="dsq-comment-message"><p>#include<br />\n#include<br />\nusing namespace std;<br />\nvoid med(int a[],int b[],int lena,int lenb);<br />\nint main()<br />\n{<br />\nint a[10],b[10],lena,lenb,i;<br />\ncout&lt;&gt;lena;<br />\nfor(i=0;i&gt;a[i];<br />\ncout&lt;&gt;lenb;<br />\nfor(i=0;i&gt;b[i];<br />\nmed(a,b,lena,lenb);<br />\ngetch();<br />\nreturn 0;<br />\n}<br />\nvoid med(int a[],int b[],int lena,int lenb)<br />\n{<br />\nint i,j,temp,cas,mid;<br />\nfloat mide;<br />\nfor(i=0;i&lt;lenb;i++)<br />\nfor(j=0;j&lt;lena;j++)<br />\n{<br />\n                  if(b[i]&lt;a[j])<br />\n                  {<br />\n                  temp=a[j];<br />\n                  a[j]=b[i];<br />\n                  b[i]=temp;<br />\n                  }</p>\n<p>}<br />\nfor(i=0;i&lt;lenb;i++)<br />\nfor(j=i+1;jb[j])<br />\n{<br />\ntemp=b[j];<br />\nb[j]=b[i];<br />\nb[i]=temp;<br />\n}<br />\ncout&lt;&lt;&quot;\\narray a is\\n&quot;;</p>\n<p>for(i=0;i&lt;lena;i++)<br />\ncout&lt;&lt;&quot;\\t&quot;&lt;&lt;a[i];<br />\ncout&lt;&lt;&quot;\\narray b is\\n&quot;;<br />\nfor(i=0;i&lt;lenb;i++)<br />\ncout&lt;&lt;&quot;\\t&quot;&lt;<b>temp)<br />\n       mid=a[temp];<br />\n       else<br />\n       {<br />\n       temp=temp-lena;<br />\n       mid=b[temp];<br />\n       }<br />\ncase 1:if(lena&gt;temp)<br />\n       mide=float((a[temp]+a[temp-1])/2.0);<br />\n       else<br />\n       if(lena==temp)<br />\n       mide=float((a[temp-1]+b[0])/2.0);<br />\n       else<br />\n        {<br />\n        temp=temp-lena;<br />\n        mide=float((b[temp-1]+b[temp])/2.0);<br />\n        }</p>\n<p>}<br />\nif(cas==2)<br />\ncout&lt;&lt;&quot;\\nthe median is &quot;&lt;&lt;mid;<br />\nelse<br />\ncout&lt;&lt;&quot;\\nthe median is &quot;&lt;&lt;mide;</p>\n<p>}<br />\nadvantage: 2 array differ in size</b></p>\n</div>\r\n        </div>\r\n\r\n    </li><!-- #comment-## -->\n    <li class="comment even thread-odd thread-alt depth-1" id="dsq-comment-9874">\r\n        <div id="dsq-comment-header-9874" class="dsq-comment-header">\r\n            <cite id="dsq-cite-9874">\r\n                <span id="dsq-author-user-9874">Ankit Gupta</span>\r\n            </cite>\r\n        </div>\r\n        <div id="dsq-comment-body-9874" class="dsq-comment-body">\r\n            <div id="dsq-comment-message-9874" class="dsq-comment-message"><p>On similar lines. O(n) solution can be simplified to :</p>\n<pre> <code language="C">\nint getMedian(int s1[], int n, int s2[], int m)\n{\n    int m1, m2, total = m+n;\n\n    int i = 0, j = 0;\n    for(int k = 0; k &lt;= total&gt;&gt;1; k++) {\n        m1 = m2;\n        if (i == n) {\n            m2 = s2[j++];\n        } else if (j == m) {\n            m2 = s1[i++];\n        } else {\n            m2 = (s1[i] &lt; s2[j]) ? s1[i++] : s2[j++];\n        }\n    }\n\n    return (total&amp;1) ? m2 : (m1+m2)/2;\n}\n</code> </pre>\n</div>\r\n        </div>\r\n\r\n    </li><!-- #comment-## -->\n    <li class="comment odd alt thread-even depth-1" id="dsq-comment-8913">\r\n        <div id="dsq-comment-header-8913" class="dsq-comment-header">\r\n            <cite id="dsq-cite-8913">\r\n                <span id="dsq-author-user-8913">kg</span>\r\n            </cite>\r\n        </div>\r\n        <div id="dsq-comment-body-8913" class="dsq-comment-body">\r\n            <div id="dsq-comment-message-8913" class="dsq-comment-message"><pre> <code language="C">\n#include&lt;iostream&gt;\nusing namespace std;\nint median1(int *ar1,int n1,int *ar2,int n2)  // Time - O(n)  Space -  O(1)\n{\n    int total = n1+n2;\n    int count = total/2;\n    int i=0;\n    int el1,el2;\n    int index1 = 0,index2=0;\n    for(;i&lt;=count&amp;&amp;index1&lt;n1&amp;&amp;index2&lt;n2;i++)\n    {\n        el1 = el2;\n        if(ar1[index1] &lt; ar2[index2])\n            el2 = ar1[index1++];\n        else\n            el2 = ar2[index2++];\n    }\n    while(i&lt;=count)\n    {\n        el1 = el2;\n        if(index1&lt;n1)\n            el2 = ar1[index1++];\n        else if(index2&lt;n2)\n            el2 = ar2[index2++];\n        i++;\n    }\n\n    if(total&amp;1)\n         return el2;\n    else\n        return (el2+el1)/2;\n\n}\nint main()\n{\n    int ar1[] =  {2,4,6,8};\n    int ar2[] = {1,3,6,9};\n\n\n    int n1 = sizeof(ar1)/sizeof(ar1[0]);\n    int n2 = sizeof(ar2)/sizeof(ar2[0]);\n    cout&lt;&lt;median1(ar1,n1,ar2,n2);\n}\n\n</code> </pre>\n</div>\r\n        </div>\r\n\r\n    <ul class="children">\n    <li class="comment even depth-2" id="dsq-comment-8914">\r\n        <div id="dsq-comment-header-8914" class="dsq-comment-header">\r\n            <cite id="dsq-cite-8914">\r\n                <span id="dsq-author-user-8914">kg</span>\r\n            </cite>\r\n        </div>\r\n        <div id="dsq-comment-body-8914" class="dsq-comment-body">\r\n            <div id="dsq-comment-message-8914" class="dsq-comment-message"><p>This works for different size array&#8230;. &amp; iterative process.</p>\n</div>\r\n        </div>\r\n\r\n    </li><!-- #comment-## -->\n</ul><!-- .children -->\n</li><!-- #comment-## -->\n    <li class="comment odd alt thread-odd thread-alt depth-1" id="dsq-comment-8343">\r\n        <div id="dsq-comment-header-8343" class="dsq-comment-header">\r\n            <cite id="dsq-cite-8343">\r\n                <span id="dsq-author-user-8343">yc</span>\r\n            </cite>\r\n        </div>\r\n        <div id="dsq-comment-body-8343" class="dsq-comment-body">\r\n            <div id="dsq-comment-message-8343" class="dsq-comment-message"><p>different lenght, iteration</p>\n<pre> <code language="C">\r\n/* Paste your code here (You may delete these lines if not writing code) */\r\n\r\n#include &lt;stdio.h&gt;\r\n#include &lt;stdlib.h&gt;\r\n#include &lt;algorithm&gt;\r\nusing namespace std;\r\nint cent(int a, int b, int c){\r\n  //a and b must be in order from small to large\r\n  return min(max(a,c),b);\r\n}\r\n\r\n\r\ndouble findmedian(int a1[],int n1, int a2[],int n2){\r\n\r\n  int *p1, *p2;\r\n  if(n1 &lt; n2) {\r\n    p1=a1;\r\n    p2=a2;\r\n  }else{\r\n    p1=a2;\r\n    p2=a1;\r\n    int tmp=n2;\r\n    n2=n1;\r\n    n1=tmp;\r\n  }\r\n  \r\n  if(n1 == 1){\r\n    if(n2 == 1) \r\n      return 0.5*(p1[0]+p2[0]); \r\n    if(n2 == 2) \r\n      return cent(p2[0],p2[1],p1[0]);\r\n    //n2 &gt;=3 ;\r\n    int mid1=(n2-1)/2;\r\n    int mid2= n2/2;\r\n    if(mid1==mid2) \r\n      return 0.5*(p2[mid1]+cent(p2[mid1-1],p2[mid1+1],p1[0]));\r\n    return cent(p2[mid1],p2[mid2],p1[0]);\r\n  }\r\n  while(n1 &gt; 0){\r\n    if(n1 == 2){\r\n      if(n2 == 2) \r\n\treturn 0.5*(max(p1[0],p2[0]) + min(p1[1],p2[1]));\r\n      \r\n      int mid1=(n2-1)/2;\r\n      int mid2= n2/2;\r\n      \r\n      return 0.5*( cent(p2[mid1-1],p2[mid1+1],cent(p1[0],p1[1],p2[mid1])) \r\n\t\t   + cent(p2[mid2-1],p2[mid2+1],cent(p1[0],p1[1],p2[mid2]))); \r\n      \r\n    }\r\n    \r\n    int mid11=(n1-1)/2;\r\n    int mid12=n1/2;\r\n    int mid21=(n2-1)/2;\r\n    int mid22=n2/2;\r\n    \r\n    if((mid11+mid12) == (mid21+mid22)) \r\n      return 0.5*(mid11+mid12);\r\n    else if((mid11+mid12) &lt; (mid21+mid22)){\r\n      n1-=mid11;\r\n      p1=&amp;p1[mid11];\r\n      n2=n2-mid11;\r\n    }else{\r\n      int trim=n1-mid12-1;\r\n      n1=mid12+1;\r\n      n2-=trim;\r\n      p2=&amp;p2[trim];\r\n    }\r\n    continue; \r\n  }\r\n}\r\n\r\nint main(int argc, char** argv){\r\n\r\n  int a[]={-1,1,2,3,3,7,9,11,33};\r\n  int b[]={2,4};\r\n\r\n  int n1=sizeof(a)/sizeof(int);\r\n  int n2=sizeof(b)/sizeof(int);\r\n\r\n  printf(&quot;Median is %f\\n&quot;,findmedian(a,n1,b,n2));\r\n\r\n\r\n}\r\n\r\n\r\n</code> </pre>\n</div>\r\n        </div>\r\n\r\n    </li><!-- #comment-## -->\n    <li class="comment even thread-even depth-1" id="dsq-comment-7785">\r\n        <div id="dsq-comment-header-7785" class="dsq-comment-header">\r\n            <cite id="dsq-cite-7785">\r\n                <span id="dsq-author-user-7785">Ajinkya</span>\r\n            </cite>\r\n        </div>\r\n        <div id="dsq-comment-body-7785" class="dsq-comment-body">\r\n            <div id="dsq-comment-message-7785" class="dsq-comment-message"><p>Rascala different length arrays. Do this. Mind it.</p>\n<pre> <code language="C">\n#include&lt;stdio.h&gt;\n#include&lt;conio.h&gt;\n#include&lt;iostream.h&gt;\n\nint max(int a,int b)\n{\n    return((a&gt;b)?a:b);\n}\n\nint min(int a,int b)\n{\n    return((a&lt;b)?a:b);\n}\n\nint median(int arr1[],int arr2[],int n1,int n2,int m1,int m2)\n{\n    //Base case - Recursion end case\n    if((n2-n1)&lt;=1 &amp;&amp; (m2-m1)&lt;=1)\n    {\n       if((n2-n1)==1 &amp;&amp; (m2-m1)==1) //2 elements in both sublists\n          return(max(max(arr1[n1],arr2[m1]),min(arr1[n2],arr2[m2])));\n       else if((n2-n1)==0) //1st sublist just 1 element\n          return(min(arr2[m1],arr2[m2]));\n       else //2nd sublist contains just 1 element\n          return(min(arr1[n1],arr1[n2]));\n    }\n    \n    //Recursion step\n    int mid1=(n1+n2)/2;\n    int mid2=(m1+m2)/2;\n    if(arr1[mid1]&lt;arr2[mid2])\n       return(median(arr1,arr2,mid1,n2,m1,mid2));\n    else if(arr2[mid2]&lt;arr1[mid1])\n       return(median(arr1,arr2,n1,mid1,mid2,m2));\n    else if(arr1[mid1]==arr2[mid2])\n    {\n         if((n2-n1)&gt;(m2-m1)) //more elements in arr1\n            return(arr1[mid1+1]);\n         else if((n2-n1)&lt;(m2-m1)) //more elements in arr2\n            return(arr2[mid2+1]);\n         else\n            return(arr1[mid1]);\n    }\n}\nint main()\n{\n    int arr1[]={4,21,34,56,78};\n    int arr2[]={2,34,56,57,67,89};\n    int n=sizeof(arr1)/sizeof(arr1[0]);\n    int m=sizeof(arr2)/sizeof(arr2[0]);\n    cout&lt;&lt;&quot;\\nMedian of merged arrays is: &quot;&lt;&lt;median(arr1,arr2,0,n-1,0,m-1);\n    getch();\n    return 0;\n}\n\n</code> </pre>\n</div>\r\n        </div>\r\n\r\n    <ul class="children">\n    <li class="comment odd alt depth-2" id="dsq-comment-8199">\r\n        <div id="dsq-comment-header-8199" class="dsq-comment-header">\r\n            <cite id="dsq-cite-8199">\r\n                <span id="dsq-author-user-8199">Jelum</span>\r\n            </cite>\r\n        </div>\r\n        <div id="dsq-comment-body-8199" class="dsq-comment-body">\r\n            <div id="dsq-comment-message-8199" class="dsq-comment-message"><p>@Ajinkya:<br />\nYour solution is wrong. Try:</p>\n<p>arr1:<br />\n41 42 43 74 83<br />\narr2:<br />\n3 6 10 25 53 76 78 84 95</p>\n<p>Your answer is 25</p>\n<p>Right is number between 43 and 53</p>\n</div>\r\n        </div>\r\n\r\n    </li><!-- #comment-## -->\n</ul><!-- .children -->\n</li><!-- #comment-## -->\n    <li class="comment byuser comment-author-gautam5669 even thread-odd thread-alt depth-1" id="dsq-comment-7669">\r\n        <div id="dsq-comment-header-7669" class="dsq-comment-header">\r\n            <cite id="dsq-cite-7669">\r\n                <span id="dsq-author-user-7669">Gautam</span>\r\n            </cite>\r\n        </div>\r\n        <div id="dsq-comment-body-7669" class="dsq-comment-body">\r\n            <div id="dsq-comment-message-7669" class="dsq-comment-message"><pre> <code language="C">\n\n#include&lt;stdio.h&gt;\n#include&lt;stdlib.h&gt;\n#define MIN -32767\n#define MAX  32767\n\n/*\n  this can be used to find the median of two sorted array\n*/\n\nint findK(int A[], int m, int B[], int n, int k)\n\n{\n if(m&lt;0 || n&lt;0 || k&lt;0 || k &gt;(m+n))\n\treturn -1;\n\n  int i = (int)((double)m / (m+n) * (k-1));\n  int j = (k-1) - i;\n\n  // invariant: i + j = k-1\n  // Note: A[-1] = -INF and A[m] = +INF to maintain invariant\n  int Ai_1 = ((i == 0) ? MIN : A[i-1]);\n  int Bj_1 = ((j == 0) ? MIN : B[j-1]);\n  int Ai   = ((i == m) ? MAX : A[i]);\n  int Bj   = ((j == n) ? MAX : B[j]);\n\n  if (Bj_1 &lt; Ai &amp;&amp; Ai &lt; Bj)\n\t return Ai;\n  else if (Ai_1 &lt; Bj &amp;&amp; Bj &lt; Ai)\n\t return Bj;\n\n  // if none of the cases above, then it is either:\n  if (Ai &lt; Bj)\n\t // exclude Ai and below portion\n\t // exclude Bj and above portion\n\t return findK(A+i+1, m-i-1, B, j, k-i-1);\n  else /* Bj &lt; Ai */\n\t // exclude Ai and above portion\n\t // exclude Bj and below portion\n\t return findK(A, i, B+j+1, n-j-1, k-j-1);\n}\nint main()\n{\nint m,n;\n\n\nint a[3]= {1,3,5};\nint b[4]= {2,4,6,8};\n\nm=3;\nn=4;\n\n if((m+n)%2==0) \n  {\n\t int y1=findK(a,m,b,n,(m+n)/2);\n\t int y2=findK(a,m,b,n,((m+n)/2+1));\n\t printf(&quot;Median %f&quot;,(float)(y1+y2)/(float)(2.0));\n  }\n else\n  printf(&quot;Median %d&quot;,findK(a,m,b,n,(m+n)/2+1));\nreturn 0;\n}\n\n</code> </pre>\n</div>\r\n        </div>\r\n\r\n    </li><!-- #comment-## -->\n    <li class="comment byuser comment-author-geeksforgeeks bypostauthor odd alt thread-even depth-1" id="dsq-comment-7331">\r\n        <div id="dsq-comment-header-7331" class="dsq-comment-header">\r\n            <cite id="dsq-cite-7331">\r\n                <span id="dsq-author-user-7331">GeeksforGeeks</span>\r\n            </cite>\r\n        </div>\r\n        <div id="dsq-comment-body-7331" class="dsq-comment-body">\r\n            <div id="dsq-comment-message-7331" class="dsq-comment-message"><p>@All: Updates on this post have been in queue from a long time. Apologies for the long delay. We have updated the post now. </p>\n<p>@nutcracker:  Thanks for suggesting the optimization. We have added a point for your suggested optimization. </p>\n<p>@jntl:  Thanks for suggesting the fix. We have incorporated your suggested changes, method 2 is now bug free.</p>\n<p>@Anonymous and @spandan: We will soon be publishing another post for arrays of unequal size.</p>\n</div>\r\n        </div>\r\n\r\n    </li><!-- #comment-## -->\n    <li class="comment even thread-odd thread-alt depth-1" id="dsq-comment-5175">\r\n        <div id="dsq-comment-header-5175" class="dsq-comment-header">\r\n            <cite id="dsq-cite-5175">\r\n                <span id="dsq-author-user-5175">Anonymous</span>\r\n            </cite>\r\n        </div>\r\n        <div id="dsq-comment-body-5175" class="dsq-comment-body">\r\n            <div id="dsq-comment-message-5175" class="dsq-comment-message"><p>second solution might fail for cases where arrays are not of equal size.</p>\n</div>\r\n        </div>\r\n\r\n    <ul class="children">\n    <li class="comment byuser comment-author-kartik odd alt depth-2" id="dsq-comment-7327">\r\n        <div id="dsq-comment-header-7327" class="dsq-comment-header">\r\n            <cite id="dsq-cite-7327">\r\n                <span id="dsq-author-user-7327">kartik</span>\r\n            </cite>\r\n        </div>\r\n        <div id="dsq-comment-body-7327" class="dsq-comment-body">\r\n            <div id="dsq-comment-message-7327" class="dsq-comment-message"><p>The above solutions are only for two sorted arrays of equal size.  We will soon be publishing another post for unequal size.</p>\n</div>\r\n        </div>\r\n\r\n    </li><!-- #comment-## -->\n</ul><!-- .children -->\n</li><!-- #comment-## -->\n    <li class="comment even thread-even depth-1" id="dsq-comment-4631">\r\n        <div id="dsq-comment-header-4631" class="dsq-comment-header">\r\n            <cite id="dsq-cite-4631">\r\n                <span id="dsq-author-user-4631">Nishant</span>\r\n            </cite>\r\n        </div>\r\n        <div id="dsq-comment-body-4631" class="dsq-comment-body">\r\n            <div id="dsq-comment-message-4631" class="dsq-comment-message"><p>I think method -1 will fail in following case<br />\narr1 &#8211; {1,2,3,4,5,6,7,8,9,10,14,156}<br />\narr2 = { 2002, 2004,&#8230;.}</p>\n<p>Can you explain if it would not fail</p>\n</div>\r\n        </div>\r\n\r\n    <ul class="children">\n    <li class="comment byuser comment-author-kartik odd alt depth-2" id="dsq-comment-7326">\r\n        <div id="dsq-comment-header-7326" class="dsq-comment-header">\r\n            <cite id="dsq-cite-7326">\r\n                <span id="dsq-author-user-7326">kartik</span>\r\n            </cite>\r\n        </div>\r\n        <div id="dsq-comment-body-7326" class="dsq-comment-body">\r\n            <div id="dsq-comment-message-7326" class="dsq-comment-message"><p>@Nishant: You could try running the program before commenting here.  Anyways, I did this for you and it worked fine.  See the following program.  It gives output as 1079 which is average of 156 and 2002.</p>\n<pre> <code language="C">\r\n#include &lt;stdio.h&gt;\r\n\r\n/* This function returns median of ar1[] and ar2[].\r\n   Assumptions in this function:\r\n   Both ar1[] and ar2[] are sorted arrays\r\n   Both have n elements */\r\nint getMedian(int ar1[], int ar2[], int n)\r\n{\r\n  int i = 0;  /* Current index of i/p array ar1[] */\r\n  int j = 0; /* Current index of i/p array ar2[] */\r\n  int count;\r\n  int m1 = -1, m2 = -1;\r\n\r\n  /* Since there are 2n elements, median will be average\r\n   of elements at index n-1 and n in the array obtained after\r\n   merging ar1 and ar2 */\r\n  for(count = 0; count &lt;= n; count++)\r\n  {\r\n    /*Below is to handle case where all elements of ar1[] are\r\n      smaller than smallest(or first) element of ar2[]*/\r\n    if(i == n)\r\n    {\r\n      m1 = m2;\r\n      m2 = ar2[0];\r\n      break;\r\n    }\r\n\r\n    /*Below is to handle case where all elements of ar2[] are\r\n      smaller than smallest(or first) element of ar1[]*/\r\n    else if(j == n)\r\n    {\r\n      m1 = m2;\r\n      m2 = ar1[0];\r\n      break;\r\n    }\r\n\r\n    if(ar1[i] &lt; ar2[j])\r\n    {\r\n      m1 = m2;  /* Store the prev median */\r\n      m2 = ar1[i];\r\n      i++;\r\n    }\r\n    else\r\n    {\r\n      m1 = m2;  /* Store the prev median */\r\n      m2 = ar2[j];\r\n      j++;\r\n    }\r\n  }\r\n\r\n  return (m1 + m2)/2;\r\n}\r\n\r\n/* Driver program to test above function */\r\nint main()\r\n{\r\n   int ar1[] = {1,2,3,4,5,6,7,8,9,10,14,156};\r\n   int ar2[] = {2002, 2004, 2006, 2008,2010, 2012, 2014, 2016,2018, 2020, 2022, 2024};\r\n   int n = sizeof(ar1)/sizeof(ar1[0]);\r\n   printf(&quot;%d&quot;, getMedian(ar1, ar2, n)) ;\r\n\r\n   getchar();\r\n   return 0;\r\n}\r\n</code> </pre>\n</div>\r\n        </div>\r\n\r\n    </li><!-- #comment-## -->\n</ul><!-- .children -->\n</li><!-- #comment-## -->\n    <li class="comment even thread-odd thread-alt depth-1" id="dsq-comment-4423">\r\n        <div id="dsq-comment-header-4423" class="dsq-comment-header">\r\n            <cite id="dsq-cite-4423">\r\n                <span id="dsq-author-user-4423">Anand</span>\r\n            </cite>\r\n        </div>\r\n        <div id="dsq-comment-body-4423" class="dsq-comment-body">\r\n            <div id="dsq-comment-message-4423" class="dsq-comment-message"><p><a href="http://anandtechblog.blogspot.com/2011/06/google-interview-find-kth-smallest-from.html" rel="nofollow">http://anandtechblog.blogspot.com/2011/06/google-interview-find-kth-smallest-from.html</a></p>\n</div>\r\n        </div>\r\n\r\n    </li><!-- #comment-## -->\n    <li class="comment odd alt thread-even depth-1" id="dsq-comment-4181">\r\n        <div id="dsq-comment-header-4181" class="dsq-comment-header">\r\n            <cite id="dsq-cite-4181">\r\nhttp://codeinterview.blogspot.com/                <span id="dsq-author-user-4181">John</span>\r\n            </cite>\r\n        </div>\r\n        <div id="dsq-comment-body-4181" class="dsq-comment-body">\r\n            <div id="dsq-comment-message-4181" class="dsq-comment-message"><p>Nice code!</p>\n<p>Can you walk me through the following case:<br />\nint ar1[] = {1, 3, 5, 7};<br />\nint ar2[] = {2, 8, 10};<br />\nIt seems could be find the right median.Thank you.</p>\n</div>\r\n        </div>\r\n\r\n    </li><!-- #comment-## -->\n    <li class="comment even thread-odd thread-alt depth-1" id="dsq-comment-3995">\r\n        <div id="dsq-comment-header-3995" class="dsq-comment-header">\r\n            <cite id="dsq-cite-3995">\r\n                <span id="dsq-author-user-3995">Zero</span>\r\n            </cite>\r\n        </div>\r\n        <div id="dsq-comment-body-3995" class="dsq-comment-body">\r\n            <div id="dsq-comment-message-3995" class="dsq-comment-message"><p>Hey Guys,</p>\n<p>Curious if this would work. Tested it on a few samples n looks fine. </p>\n<p>let A and B be the two sorted arrays.</p>\n<p>m = length(A) n=length(B)</p>\n<p>have two pointers ptrA and ptrB pointing to the first element of A and B respectively. if A[ptrA]&lt;= B[ptrB], increment ptrA. else increment ptrB. stop when the number of increments is equal to (m+n)/2.</p>\n<p>if m+n is odd, the median is the minimum( A[ptrA] and B[ptrB] ). if even take mean of the min number and next greater number.</p>\n<p>Kindly let me know if this works!</p>\n</div>\r\n        </div>\r\n\r\n    <ul class="children">\n    <li class="comment byuser comment-author-kartik odd alt depth-2" id="dsq-comment-4373">\r\n        <div id="dsq-comment-header-4373" class="dsq-comment-header">\r\n            <cite id="dsq-cite-4373">\r\n                <span id="dsq-author-user-4373">kartik</span>\r\n            </cite>\r\n        </div>\r\n        <div id="dsq-comment-body-4373" class="dsq-comment-body">\r\n            <div id="dsq-comment-message-4373" class="dsq-comment-message"><p>@Zero: This method looks same as method 1.  Correct me if I am wrong.</p>\n</div>\r\n        </div>\r\n\r\n    </li><!-- #comment-## -->\n</ul><!-- .children -->\n</li><!-- #comment-## -->\n    <li class="comment byuser comment-author-ravinder even thread-even depth-1" id="dsq-comment-3860">\r\n        <div id="dsq-comment-header-3860" class="dsq-comment-header">\r\n            <cite id="dsq-cite-3860">\r\n                <span id="dsq-author-user-3860">ravi</span>\r\n            </cite>\r\n        </div>\r\n        <div id="dsq-comment-body-3860" class="dsq-comment-body">\r\n            <div id="dsq-comment-message-3860" class="dsq-comment-message"><p>just check for ar1[0] &amp; ar2[0]<br />\nif ar1[0] is smaller then call getMedianRec  for ar1<br />\nelse call getMedianRec for ar2.</p>\n</div>\r\n        </div>\r\n\r\n    </li><!-- #comment-## -->\n    <li class="comment odd alt thread-odd thread-alt depth-1" id="dsq-comment-2729">\r\n        <div id="dsq-comment-header-2729" class="dsq-comment-header">\r\n            <cite id="dsq-cite-2729">\r\n                <span id="dsq-author-user-2729">nutcracker</span>\r\n            </cite>\r\n        </div>\r\n        <div id="dsq-comment-body-2729" class="dsq-comment-body">\r\n            <div id="dsq-comment-message-2729" class="dsq-comment-message"><pre> <code language="C"> \n\nint getMedian(int ar1[], int ar2[], int n)\n{\nif (ar1[n-1] &lt; ar2[0]) return (ar1[n-1]+ar2[0])/2;\nif (ar2[n-1] &lt; ar1[0]) return (ar2[n-1]+ar1[0])/2;\nreturn getMedianRec(ar1, ar2, 0, n-1, n);\n}</code> </pre>\n</div>\r\n        </div>\r\n\r\n    <ul class="children">\n    <li class="comment even depth-2" id="dsq-comment-2731">\r\n        <div id="dsq-comment-header-2731" class="dsq-comment-header">\r\n            <cite id="dsq-cite-2731">\r\n                <span id="dsq-author-user-2731">nutcracker</span>\r\n            </cite>\r\n        </div>\r\n        <div id="dsq-comment-body-2731" class="dsq-comment-body">\r\n            <div id="dsq-comment-message-2731" class="dsq-comment-message"><pre> <code language="C">\r\n/* this code looks more clean */\r\n\r\nint getMedian(int ar1[], int ar2[], int n)\r\n{\r\nif (ar1[n-1] &lt; ar2[0]) return (ar1[n-1]+ar2[0])/2;\r\nif (ar2[n-1] &lt; ar1[0]) return (ar2[n-1]+ar1[0])/2;\r\nreturn getMedianRec(ar1, ar2, 0, n-1, n);\r\n}\r\n\r\nint getMedianRec(int ar1[], int ar2[], int left, int right, int n)\r\n{\r\n  int i, j;  \r\n \r\n  /* We have reached at the end (left or right) of ar1[] */\r\n  if(left &gt; right)\r\n    return getMedianRec(ar2, ar1, 0, n-1, n);\r\n \r\n  i = (left + right)/2;\r\n  j = n - i - 1;  /* Index of ar2[] */\r\n  if (i==0 || j==0) return (ar1[i]+ar2[j])/2;\r\n \r\n /* Recursion terminates here.*/\r\n  if(ar1[i] &gt; ar2[j] &amp;&amp; (ar1[i] &lt;= ar2[j+1]))\r\n  {\r\n     return (ar1[i] + ar1[i-1])/2;\r\n  }  \r\n \r\n  /*Search in left half of ar1[]*/\r\n  else if (ar1[i] &gt; ar2[j] &amp;&amp; ar1[i] &gt; ar2[j+1])\r\n    return getMedianRec(ar1, ar2, left, i-1, n);              \r\n \r\n  /*Search in right half of ar1[]*/\r\n  else /* ar1[i] is smaller than both ar2[j] and ar2[j+1]*/\r\n    return getMedianRec(ar1, ar2, i+1, right, n);\r\n}\r\n \r\n/* Driver program to test above function */\r\nint main()\r\n{\r\n//  int ar1[] = {1, 12, 15, 26, 38};\r\n//  int ar2[] = {2, 13, 17, 30, 45};\r\n  int ar1[] = {1,3,5,7,11};\r\n  int ar2[] = {9,13,15,17,19};\r\n  int ar1[] = {1,3,5,7,9};\r\n  int ar2[] = {11,13,15,17,19};\r\n\r\n  printf(&quot;%d&quot;, getMedian(ar1, ar2, 5)) ;\r\n \r\n  getchar();\r\n  return 0;\r\n}</code> </pre>\n</div>\r\n        </div>\r\n\r\n    </li><!-- #comment-## -->\n    <li class="comment byuser comment-author-soundbalaji odd alt depth-2" id="dsq-comment-2740">\r\n        <div id="dsq-comment-header-2740" class="dsq-comment-header">\r\n            <cite id="dsq-cite-2740">\r\n                <span id="dsq-author-user-2740">bala</span>\r\n            </cite>\r\n        </div>\r\n        <div id="dsq-comment-body-2740" class="dsq-comment-body">\r\n            <div id="dsq-comment-message-2740" class="dsq-comment-message"><p>Yes, this check would induce another best case run of O(1). Nice !</p>\n</div>\r\n        </div>\r\n\r\n    </li><!-- #comment-## -->\n</ul><!-- .children -->\n</li><!-- #comment-## -->\n    <li class="comment even thread-even depth-1" id="dsq-comment-2727">\r\n        <div id="dsq-comment-header-2727" class="dsq-comment-header">\r\n            <cite id="dsq-cite-2727">\r\n                <span id="dsq-author-user-2727">nutcracker</span>\r\n            </cite>\r\n        </div>\r\n        <div id="dsq-comment-body-2727" class="dsq-comment-body">\r\n            <div id="dsq-comment-message-2727" class="dsq-comment-message"><p>shouldn&#8217;t we first check if all elements of one array are smaller or greater than other array?<br />\nint getMedian(int ar1[], int ar2[], int n)<br />\n{<br />\n  if (a[n-1] <b>b[n-1]) return ((b[n-1]+a[0])/2);<br />\n  return getMedianRec(ar1, ar2, 0, n-1, n);<br />\n}</b></p>\n</div>\r\n        </div>\r\n\r\n    </li><!-- #comment-## -->\n    <li class="comment odd alt thread-odd thread-alt depth-1" id="dsq-comment-2726">\r\n        <div id="dsq-comment-header-2726" class="dsq-comment-header">\r\n            <cite id="dsq-cite-2726">\r\n                <span id="dsq-author-user-2726">nutcracker</span>\r\n            </cite>\r\n        </div>\r\n        <div id="dsq-comment-body-2726" class="dsq-comment-body">\r\n            <div id="dsq-comment-message-2726" class="dsq-comment-message"><p>an O(2n) algo would be</p>\n<pre> <code language="C">\r\nint median (int a[], int b[], int n)\r\n{\r\n  int i=n-1;int j=i;\r\n  While (j&gt;=0)\r\n  {\r\n    if (a[i]&gt;b[j]) { swap(a[i],b[j]);}\r\n      j--;\r\n  }\r\n  return ((a[n-1] + b[0])/2);\r\n}\r\n</code> </pre>\n</div>\r\n        </div>\r\n\r\n    </li><!-- #comment-## -->\n    <li class="comment even thread-even depth-1" id="dsq-comment-2425">\r\n        <div id="dsq-comment-header-2425" class="dsq-comment-header">\r\n            <cite id="dsq-cite-2425">\r\n                <span id="dsq-author-user-2425">Crime_Master_GoGo</span>\r\n            </cite>\r\n        </div>\r\n        <div id="dsq-comment-body-2425" class="dsq-comment-body">\r\n            <div id="dsq-comment-message-2425" class="dsq-comment-message"><p>that was good explanation, </p>\n<p>I would like to know your approach when the two array have the different length.</p>\n</div>\r\n        </div>\r\n\r\n    </li><!-- #comment-## -->\n    <li class="comment odd alt thread-odd thread-alt depth-1" id="dsq-comment-2124">\r\n        <div id="dsq-comment-header-2124" class="dsq-comment-header">\r\n            <cite id="dsq-cite-2124">\r\n                <span id="dsq-author-user-2124">spandan</span>\r\n            </cite>\r\n        </div>\r\n        <div id="dsq-comment-body-2124" class="dsq-comment-body">\r\n            <div id="dsq-comment-message-2124" class="dsq-comment-message"><p>how about doing this for sorted arrays with unequal elements.</p>\n</div>\r\n        </div>\r\n\r\n    </li><!-- #comment-## -->\n    <li class="comment even thread-even depth-1" id="dsq-comment-2029">\r\n        <div id="dsq-comment-header-2029" class="dsq-comment-header">\r\n            <cite id="dsq-cite-2029">\r\n                <span id="dsq-author-user-2029">Rahul jain</span>\r\n            </cite>\r\n        </div>\r\n        <div id="dsq-comment-body-2029" class="dsq-comment-body">\r\n            <div id="dsq-comment-message-2029" class="dsq-comment-message"><p>heyy, really a very nice article!!!</p>\n</div>\r\n        </div>\r\n\r\n    </li><!-- #comment-## -->\n    <li class="comment odd alt thread-odd thread-alt depth-1" id="dsq-comment-1918">\r\n        <div id="dsq-comment-header-1918" class="dsq-comment-header">\r\n            <cite id="dsq-cite-1918">\r\n                <span id="dsq-author-user-1918">marius</span>\r\n            </cite>\r\n        </div>\r\n        <div id="dsq-comment-body-1918" class="dsq-comment-body">\r\n            <div id="dsq-comment-message-1918" class="dsq-comment-message"><p>very nice article.<br />\ngreat algorithms, elegant solutions and very good explanations!</p>\n<p>Thanks!</p>\n</div>\r\n        </div>\r\n\r\n    </li><!-- #comment-## -->\n    <li class="comment even thread-even depth-1" id="dsq-comment-1267">\r\n        <div id="dsq-comment-header-1267" class="dsq-comment-header">\r\n            <cite id="dsq-cite-1267">\r\n                <span id="dsq-author-user-1267">Abhinav Raghunandan</span>\r\n            </cite>\r\n        </div>\r\n        <div id="dsq-comment-body-1267" class="dsq-comment-body">\r\n            <div id="dsq-comment-message-1267" class="dsq-comment-message"><p>Good work . Thanks for sharing your knowledge . The way your explained was simple great !!!!</p>\n</div>\r\n        </div>\r\n\r\n    </li><!-- #comment-## -->\n    <li class="comment byuser comment-author-jntl odd alt thread-odd thread-alt depth-1" id="dsq-comment-577">\r\n        <div id="dsq-comment-header-577" class="dsq-comment-header">\r\n            <cite id="dsq-cite-577">\r\n                <span id="dsq-author-user-577">jntl</span>\r\n            </cite>\r\n        </div>\r\n        <div id="dsq-comment-body-577" class="dsq-comment-body">\r\n            <div id="dsq-comment-message-577" class="dsq-comment-message"><p>IMHO, the code of Method 2 should be modified as:</p>\n<pre> <code language="C">\r\nif (m1 &lt; m2)  \r\n{\r\n    if (n % 2 == 0)    \r\n        return getMedian(ar1 + n/2 - 1, ar2, n - n/2 +1);\r\n    else\r\n        return getMedian(ar1 + n/2, ar2, n - n/2);\r\n}\r\n\r\nif (n % 2 == 0)\r\n    return getMedian(ar2 + n/2 - 1, ar1, n - n/2 + 1);  \r\nelse\r\n    return getMedian(ar2 + n/2, ar1, n - n/2);\r\n</code> </pre>\n</div>\r\n        </div>\r\n\r\n    </li><!-- #comment-## -->\n    <li class="comment byuser comment-author-jntl even thread-even depth-1" id="dsq-comment-576">\r\n        <div id="dsq-comment-header-576" class="dsq-comment-header">\r\n            <cite id="dsq-cite-576">\r\n                <span id="dsq-author-user-576">jntl</span>\r\n            </cite>\r\n        </div>\r\n        <div id="dsq-comment-body-576" class="dsq-comment-body">\r\n            <div id="dsq-comment-message-576" class="dsq-comment-message"><p>In Method 2, consider the following test case:<br />\narr1[]={2, 4, 6, 10}<br />\narr2[]={1, 3, 9, 12}<br />\nMethod 1 returns (4 + 6 ) / 2 = 5, which is correct.<br />\nMethod 2 returns (3 + 6) / 2 = 4, which is wrong!<br />\nThis is because Method 2 picks {6, 10} from arr1 and {1, 3} from arr2, which will lost the correct pair {4, 6}.<br />\nWe should pick {4, 6, 10} from arr1 and {1, 3, 9} from arr2 instead.<br />\nThe algorithm of Method 2 should be modified as below:<br />\nif (m1  m2 case.</p>\n</div>\r\n        </div>\r\n\r\n    <ul class="children">\n    <li class="comment odd alt depth-2" id="dsq-comment-1518">\r\n        <div id="dsq-comment-header-1518" class="dsq-comment-header">\r\n            <cite id="dsq-cite-1518">\r\n                <span id="dsq-author-user-1518">sourabhjakhar</span>\r\n            </cite>\r\n        </div>\r\n        <div id="dsq-comment-body-1518" class="dsq-comment-body">\r\n            <div id="dsq-comment-message-1518" class="dsq-comment-message"><p>if we take array a[(n/2-1)&#8230;..],a[&#8230;&#8230;.(n/2+1)]<br />\nif n is even than it gives correct answer for this case also</p>\n</div>\r\n        </div>\r\n\r\n    </li><!-- #comment-## -->\n</ul><!-- .children -->\n</li><!-- #comment-## -->\n    <li class="comment byuser comment-author-jntl even thread-odd thread-alt depth-1" id="dsq-comment-575">\r\n        <div id="dsq-comment-header-575" class="dsq-comment-header">\r\n            <cite id="dsq-cite-575">\r\n                <span id="dsq-author-user-575">jntl</span>\r\n            </cite>\r\n        </div>\r\n        <div id="dsq-comment-body-575" class="dsq-comment-body">\r\n            <div id="dsq-comment-message-575" class="dsq-comment-message"><p>In the code, interger division is used, so the median of 1 and 4 is (1 + 4) / 2 = 2<br />\nI think it is better to use float division so that the median is 2.5, which is more precise.</p>\n</div>\r\n        </div>\r\n\r\n    </li><!-- #comment-## -->\n    <li class="comment byuser comment-author-sandeep odd alt thread-even depth-1" id="dsq-comment-466">\r\n        <div id="dsq-comment-header-466" class="dsq-comment-header">\r\n            <cite id="dsq-cite-466">\r\n                <span id="dsq-author-user-466">Sandeep</span>\r\n            </cite>\r\n        </div>\r\n        <div id="dsq-comment-body-466" class="dsq-comment-body">\r\n            <div id="dsq-comment-message-466" class="dsq-comment-message"><p>@Rohini: In the above algorithms/codes, it is assumed that arrays are of equal size, but can be easily modified for the arrays of different sizes.</p>\n</div>\r\n        </div>\r\n\r\n    </li><!-- #comment-## -->\n    <li class="comment even thread-odd thread-alt depth-1" id="dsq-comment-465">\r\n        <div id="dsq-comment-header-465" class="dsq-comment-header">\r\n            <cite id="dsq-cite-465">\r\n                <span id="dsq-author-user-465">Rohini</span>\r\n            </cite>\r\n        </div>\r\n        <div id="dsq-comment-body-465" class="dsq-comment-body">\r\n            <div id="dsq-comment-message-465" class="dsq-comment-message"><p>Does this work for 2 different sizes of the sorted array?</p>\n</div>\r\n        </div>\r\n\r\n    </li><!-- #comment-## -->\n    <li class="comment byuser comment-author-geeksforgeeks bypostauthor odd alt thread-even depth-1" id="dsq-comment-424">\r\n        <div id="dsq-comment-header-424" class="dsq-comment-header">\r\n            <cite id="dsq-cite-424">\r\n                <span id="dsq-author-user-424">geeksforgeeks</span>\r\n            </cite>\r\n        </div>\r\n        <div id="dsq-comment-body-424" class="dsq-comment-body">\r\n            <div id="dsq-comment-message-424" class="dsq-comment-message"><p>@rv_10987: Thanks very much for pointing out this case.  We have made changes to handle it. For median of a single array arr[], we have added a function median() that returns appropriate median.</p>\n</div>\r\n        </div>\r\n\r\n    </li><!-- #comment-## -->\n    <li class="comment byuser comment-author-rv_10987 even thread-odd thread-alt depth-1" id="dsq-comment-419">\r\n        <div id="dsq-comment-header-419" class="dsq-comment-header">\r\n            <cite id="dsq-cite-419">\r\n                <span id="dsq-author-user-419">rv_10987</span>\r\n            </cite>\r\n        </div>\r\n        <div id="dsq-comment-body-419" class="dsq-comment-body">\r\n            <div id="dsq-comment-message-419" class="dsq-comment-message"><p>In method 2:<br />\nTest case: arr1[]={2,4,6,8}<br />\n           arr2[]={1,3,6,9}<br />\n           n=4<br />\nAs m1=arr1[n/2]=6 and m2=arr2[n/2]=6 so the o/p would be 6. But the median should be (4+6)/2=5.</p>\n</div>\r\n        </div>\r\n\r\n    </li><!-- #comment-## -->\n    <li class="comment odd alt thread-even depth-1" id="dsq-comment-409">\r\n        <div id="dsq-comment-header-409" class="dsq-comment-header">\r\n            <cite id="dsq-cite-409">\r\n                <span id="dsq-author-user-409">TJ</span>\r\n            </cite>\r\n        </div>\r\n        <div id="dsq-comment-body-409" class="dsq-comment-body">\r\n            <div id="dsq-comment-message-409" class="dsq-comment-message"><p>@Ved, instead of passing the reduced array, you may use the lower index and higher index that bound the reduced array.<br />\nSo, instead of just passing the Array1, Array2<br />\nPass low1, high1 and low2 and high2 along with Array1 and Array2.<br />\nSo, mid1 = (low1+high1)/2 and mid2=(low2+high2)/2</p>\n</div>\r\n        </div>\r\n\r\n    </li><!-- #comment-## -->\n    <li class="comment even thread-odd thread-alt depth-1" id="dsq-comment-390">\r\n        <div id="dsq-comment-header-390" class="dsq-comment-header">\r\n            <cite id="dsq-cite-390">\r\nhttp://techpuzzl.wordpress.com/                <span id="dsq-author-user-390">Ved</span>\r\n            </cite>\r\n        </div>\r\n        <div id="dsq-comment-body-390" class="dsq-comment-body">\r\n            <div id="dsq-comment-message-390" class="dsq-comment-message"><p>The method 2 (Median of Median) using recursion is very good for languages where we can pass an array with an offset.<br />\nI am not able to translate the same logic in Java where I can not pass the reduced array for each recursive call.<br />\nAny ideas ?</p>\n</div>\r\n        </div>\r\n\r\n    </li><!-- #comment-## -->\n    <li class="comment byuser comment-author-geeksforgeeks bypostauthor odd alt thread-even depth-1" id="dsq-comment-319">\r\n        <div id="dsq-comment-header-319" class="dsq-comment-header">\r\n            <cite id="dsq-cite-319">\r\n                <span id="dsq-author-user-319">geeksforgeeks</span>\r\n            </cite>\r\n        </div>\r\n        <div id="dsq-comment-body-319" class="dsq-comment-body">\r\n            <div id="dsq-comment-message-319" class="dsq-comment-message"><p>@sachin midha: Thanks very much for pointing out the bug. We have included the suggested changes to the original post.</p>\n</div>\r\n        </div>\r\n\r\n    </li><!-- #comment-## -->\n    <li class="comment even thread-odd thread-alt depth-1" id="dsq-comment-316">\r\n        <div id="dsq-comment-header-316" class="dsq-comment-header">\r\n            <cite id="dsq-cite-316">\r\n                <span id="dsq-author-user-316">sachin midha</span>\r\n            </cite>\r\n        </div>\r\n        <div id="dsq-comment-body-316" class="dsq-comment-body">\r\n            <div id="dsq-comment-message-316" class="dsq-comment-message"><p>I didnot run the program so i dont know whether it gives correct result or not but what i thought was this :<br />\nfor the ex. that you have given with<br />\nar1[] = {1, 2, 3, 4, 6}<br />\ncount &amp; i in the called function are each 0 initially<br />\nafter pass 1 : i=1 &amp; count=1<br />\nafter pass 2 : i=2 &amp; count=2<br />\nafter pass 3 : i=3 &amp; count=3<br />\nafter pass 4 : i=4 &amp; count=4<br />\nafter pass 5 : i=5 &amp; count=5<br />\nnow since count=5 the loop will run again and will compare<br />\nar1[5] with ar2[0] but since ar1[5] is not a legitimate element, it is conceptually wrong.(Its a WARNING:ARRAY bounds crossed but not an error but it runs)<br />\nIn your case, you might be getting the correct answer because the random element ar1[5] was by chance greater than ar2[0].<br />\nAlthough it is a very small bug but i thought to bring it up so that i may get to know if there is some problem in my evaluation.<br />\nand this problem can be eradicated by putting an if at the start of the loop before comparison of<br />\nar1[i] &amp; ar2[j].</p>\n<pre> <code language="C">\r\nif(i==n)\r\n{ \r\n   m1=m2;\r\n   m2=ar2[0]; \r\n   break; \r\n}\r\nelse if(j==n)\r\n{\r\n   m1=m2; \r\n   m2=ar1[0]; \r\n   break; \r\n}\r\n</code> </pre>\n<p>I hope im clear enough this time.</p>\n</div>\r\n        </div>\r\n\r\n    </li><!-- #comment-## -->\n    <li class="comment byuser comment-author-geeksforgeeks bypostauthor odd alt thread-even depth-1" id="dsq-comment-305">\r\n        <div id="dsq-comment-header-305" class="dsq-comment-header">\r\n            <cite id="dsq-cite-305">\r\n                <span id="dsq-author-user-305">geeksforgeeks</span>\r\n            </cite>\r\n        </div>\r\n        <div id="dsq-comment-body-305" class="dsq-comment-body">\r\n            <div id="dsq-comment-message-305" class="dsq-comment-message"><p>@sachin midha: Could you please provide example arrays for which the method 1 didn&#8217;t work.  We tried below for method 1 and got the correct answer.</p>\n<pre> <code language="C">\r\n/* Driver program to test method 1 */\r\nint main()\r\n{\r\n   int ar1[] = {1, 2, 3, 4, 6};\r\n   int ar2[] = {10, 13, 17, 30, 45};\r\n\r\n   printf(&quot;%d&quot;, getMedian(ar1, ar2, 5)) ;\r\n\r\n   getchar();\r\n   return 0;\r\n}\r\n</code> </pre>\n</div>\r\n        </div>\r\n\r\n    </li><!-- #comment-## -->\n    <li class="comment even thread-odd thread-alt depth-1" id="dsq-comment-284">\r\n        <div id="dsq-comment-header-284" class="dsq-comment-header">\r\n            <cite id="dsq-cite-284">\r\n                <span id="dsq-author-user-284">sachin midha</span>\r\n            </cite>\r\n        </div>\r\n        <div id="dsq-comment-body-284" class="dsq-comment-body">\r\n            <div id="dsq-comment-message-284" class="dsq-comment-message"><p>In method 1, one case has not been taken care of,i.e.,<br />\nif all the elements of one array are smaller than all the elements of the oher array.<br />\nIn this case suppose elements of arr1 are less than the first element of arr2, then when count = n index of arr1 which will be accessed, will be arr1[n] which is not an existing element, hence generating an error.<br />\nSimilarly when all arr2 elements are smaller arr2[n] would be accessed which is again an error condition.</p>\n</div>\r\n        </div>\r\n\r\n    </li><!-- #comment-## -->\n    <li class="comment byuser comment-author-geeksforgeeks bypostauthor odd alt thread-even depth-1" id="dsq-comment-187">\r\n        <div id="dsq-comment-header-187" class="dsq-comment-header">\r\n            <cite id="dsq-cite-187">\r\n                <span id="dsq-author-user-187">geeksforgeeks</span>\r\n            </cite>\r\n        </div>\r\n        <div id="dsq-comment-body-187" class="dsq-comment-body">\r\n            <div id="dsq-comment-message-187" class="dsq-comment-message"><p>@Minjie Zha: Thanks very much for pointing out the typo. We have corrected it.</p>\n</div>\r\n        </div>\r\n\r\n    </li><!-- #comment-## -->\n    <li class="comment even thread-odd thread-alt depth-1" id="dsq-comment-186">\r\n        <div id="dsq-comment-header-186" class="dsq-comment-header">\r\n            <cite id="dsq-cite-186">\r\n                <span id="dsq-author-user-186">Minjie Zha</span>\r\n            </cite>\r\n        </div>\r\n        <div id="dsq-comment-body-186" class="dsq-comment-body">\r\n            <div id="dsq-comment-message-186" class="dsq-comment-message"><p>Step (5) in method 3, there is a typo. I think it should be &#8220;smaller&#8221; instead of &#8220;greater&#8221;.</p>\n</div>\r\n        </div>\r\n\r\n    </li><!-- #comment-## -->\n    <li class="comment odd alt thread-even depth-1" id="dsq-comment-138">\r\n        <div id="dsq-comment-header-138" class="dsq-comment-header">\r\n            <cite id="dsq-cite-138">\r\n                <span id="dsq-author-user-138">Rachel</span>\r\n            </cite>\r\n        </div>\r\n        <div id="dsq-comment-body-138" class="dsq-comment-body">\r\n            <div id="dsq-comment-message-138" class="dsq-comment-message"><p>I think this article made some interesting points, I read a textbook directly related to this topic, its called Probability: Theory and Examples by Richard Durrett , I found my used copy for less than the bookstores at <a href="http://www.belabooks.com/books/9780534424411.htm" rel="nofollow">http://www.belabooks.com/books/9780534424411.htm</a></p>\n</div>\r\n        </div>\r\n\r\n    </li><!-- #comment-## -->\n    <li class="comment even thread-odd thread-alt depth-1" id="dsq-comment-126">\r\n        <div id="dsq-comment-header-126" class="dsq-comment-header">\r\n            <cite id="dsq-cite-126">\r\n                <span id="dsq-author-user-126">Snehal</span>\r\n            </cite>\r\n        </div>\r\n        <div id="dsq-comment-body-126" class="dsq-comment-body">\r\n            <div id="dsq-comment-message-126" class="dsq-comment-message"><p>Thanks a lot &#8230;The Best part of the solution is the way of explaining &#8230;</p>\n</div>\r\n        </div>\r\n\r\n    </li><!-- #comment-## -->\n            </ul>\r\n\r\n\r\n        </div>\r\n\r\n    </div>\r\n\r\n<script type="text/javascript">\r\nvar disqus_url = \'http://www.geeksforgeeks.org/median-of-two-sorted-arrays/\';\r\nvar disqus_identifier = \'2105 http://geeksforgeeks.org/?p=2105\';\r\nvar disqus_container_id = \'disqus_thread\';\r\nvar disqus_shortname = \'geeksforgeeks\';\r\nvar disqus_title = "Median of two sorted arrays";\r\nvar disqus_config_custom = window.disqus_config;\r\nvar disqus_config = function () {\r\n    /*\r\n    All currently supported events:\r\n    onReady: fires when everything is ready,\r\n    onNewComment: fires when a new comment is posted,\r\n    onIdentify: fires when user is authenticated\r\n    */\r\n    \r\n    \r\n    this.language = \'\';\r\n    \r\n    if (disqus_config_custom) {\r\n        disqus_config_custom.call(this);\r\n    }\r\n};\r\n\r\n(function() {\r\n    var dsq = document.createElement(\'script\'); dsq.type = \'text/javascript\';\r\n    dsq.async = true;\r\n    dsq.src = \'//\' + disqus_shortname + \'.disqus.com/embed.js\';\r\n    (document.getElementsByTagName(\'head\')[0] || document.getElementsByTagName(\'body\')[0]).appendChild(dsq);\r\n})();\r\n</script>\r\n\r\n\r\n\t\t\t\r\n\t\t</div><!-- #content -->\r\n\t</div><!-- #primary -->\r\n\r\n\r\n\t\t\t<div id="secondary" class="widget-area" role="complementary">\r\n\t\t\t<aside id="text-9" class="widget widget_text">\t\t\t<div class="textwidget"><div id="fb-root"></div>\r\n<script>(function(d, s, id) {\r\n  var js, fjs = d.getElementsByTagName(s)[0];\r\n  if (d.getElementById(id)) return;\r\n  js = d.createElement(s); js.id = id;\r\n  js.src = "//connect.facebook.net/en_US/sdk.js#xfbml=1&version=v2.3&appId=138031159685820";\r\n  fjs.parentNode.insertBefore(js, fjs);\r\n}(document, \'script\', \'facebook-jssdk\'));</script>\r\n\r\n<div class="fb-page" data-href="https://www.facebook.com/pages/GeeksforGeeks/316764689022" data-width="300" data-height="180" data-small-header="true" data-adapt-container-width="false" data-hide-cover="true" data-show-facepile="true" data-show-posts="false"><div class="fb-xfbml-parse-ignore"><blockquote cite="https://www.facebook.com/pages/GeeksforGeeks/316764689022"><a href="https://www.facebook.com/pages/GeeksforGeeks/316764689022">GeeksforGeeks</a></blockquote></div></div>\r\n</div>\n\t\t</aside><aside id="text-33" class="widget widget_text">\t\t\t<div class="textwidget"><a href="http://www.springpeople.com/gfg-landing">\r\n<img src="http://d1gjlxt8vb0knt.cloudfront.net//wp-content/uploads/GfG-2.jpg" alt="SpringPeople Ad">\r\n</a>\r\n</div>\n\t\t</aside><aside id="text-14" class="widget widget_text"><p class="widget-title">Popular Posts</p>\t\t\t<div class="textwidget"><ul>\r\n<li><a href="http://www.geeksforgeeks.org/top-algorithms-and-data-structures-for-competitive-programming/">Top 10 Algorithms and Data Structures for Competitive Programming</a></li>\r\n<li><a href="http://www.geeksforgeeks.org/top-10-algorithms-in-interview-questions/">Top 10 algorithms in Interview Questions</a></li>\r\n<li><a href="http://www.geeksforgeeks.org/how-to-begin-with-competitive-programming/">How to begin with Competitive Programming?</a></li>\r\n<li><a href="http://www.geeksforgeeks.org/write-a-c-program-to-print-all-permutations-of-a-given-string/">  All permutations of a given string </a></li>\r\n<li><a href="http://www.geeksforgeeks.org/memory-layout-of-c-program/"> Memory Layout of C Programs</a> </li>\r\n<li><a href="http://www.geeksforgeeks.org/understanding-extern-keyword-in-c/"> Understanding \xe2\x80\x9cextern\xe2\x80\x9d keyword in C</a> </li>\r\n<li><a href="http://www.geeksforgeeks.org/heavy-light-decomposition-set-1-introduction/"> Heavy Light Decomposition</a> </li>\r\n<li><a href="http://www.geeksforgeeks.org/sorted-linked-list-to-balanced-bst/"> Sorted Linked List to Balanced BST</a></li>\r\n</ul></div>\n\t\t</aside><aside id="text-17" class="widget widget_text">\t\t\t<div class="textwidget"><script async src="//pagead2.googlesyndication.com/pagead/js/adsbygoogle.js"></script>\r\n<!-- Big 300x600 Sidebar -->\r\n<ins class="adsbygoogle"\r\n     style="display:inline-block;width:300px;height:600px"\r\n     data-ad-client="ca-pub-9465609616171866"\r\n     data-ad-slot="4402736037"></ins>\r\n<script>\r\n(adsbygoogle = window.adsbygoogle || []).push({});\r\n</script></div>\n\t\t</aside><aside id="text-32" class="widget widget_text">\t\t\t<div class="textwidget"><form style="border:1px solid #ccc;padding:3px;text-align:center;" action="https://feedburner.google.com/fb/a/mailverify" method="post" target="popupwindow" onsubmit="window.open(\'https://feedburner.google.com/fb/a/mailverify?uri=Geeksforgeeks\', \'popupwindow\', \'scrollbars=yes,width=550,height=520\');return true"><p>Subscribe and Never Miss an Article</p><input type="text" style="width:140px" placeholder="Email Address" name="email"/><input type="hidden" value="Geeksforgeeks" name="uri"/><input type="hidden" name="loc" value="en_US"/>&nbsp;&nbsp;<input type="submit" style="background-color: #4cb96b;" value="Subscribe" /></form></div>\n\t\t</aside><aside id="text-18" class="widget widget_text">\t\t\t<div class="textwidget"><script async src="//pagead2.googlesyndication.com/pagead/js/adsbygoogle.js"></script>\r\n<!-- LargeRectangleSide -->\r\n<ins class="adsbygoogle"\r\n     style="display:inline-block;width:336px;height:280px"\r\n     data-ad-client="ca-pub-9465609616171866"\r\n     data-ad-slot="1884636833"></ins>\r\n<script>\r\n(adsbygoogle = window.adsbygoogle || []).push({});\r\n</script></div>\n\t\t</aside><aside id="text-13" class="widget widget_text">\t\t\t<div class="textwidget"><ul><li><a href="http://geeksquiz.com/category/articles/puzzle/">Common Interview Puzzles</a></li><li><a href="http://www.geeksforgeeks.org/category/interview-experiences/">Interview Experiences</a></li>\r\n<li><a href="http://www.geeksforgeeks.org/category/advanced-data-structure/">Advanced Data Structures</a></li>\r\n<li><a href="http://www.geeksforgeeks.org/tag/dynamic-programming">Dynamic Programming</a></li>\r\n<li><a href="http://www.geeksforgeeks.org/tag/Greedy-Algorithm/">Greedy Algorithms</a></li>\r\n<li><a href="http://www.geeksforgeeks.org/tag/backtracking">Backtracking</a></li>\r\n<li><a href="http://www.geeksforgeeks.org/category/pattern-searching/">Pattern Searching</a></li>\r\n<li><a href="http://www.geeksforgeeks.org/tag/divide-and-conquer">Divide & Conquer</a></li>\r\n<li><a href="http://www.geeksforgeeks.org/tag/geometric-algorithms/">Geometric Algorithms</a></li><li><a href="http://www.geeksforgeeks.org/category/searching/">Searching</a></li>\r\n<li><a href="http://www.geeksforgeeks.org/category/sorting/">Sorting</a></li>\r\n<li><a href="http://www.geeksforgeeks.org/category/Hash/">Hashing</a></li>\r\n<li><a href="http://www.geeksforgeeks.org/category/algorithm/analysis/">Analysis of Algorithms</a></li>\r\n<li><a href="http://www.geeksforgeeks.org/category/algorithm/mathematical/">Mathematical Algorithms</a></li>\r\n<li><a href="http://www.geeksforgeeks.org/category/algorithm/randomized/">Randomized Algorithms</a></li>\r\n<li><a href="http://www.geeksforgeeks.org/tag/recursion">Recursion</a></li>\r\n</ul>\r\n\r\n\r\n\r\n\r\n</div>\n\t\t</aside><aside id="categories-384568212" class="widget widget_categories"><p class="widget-title">All Categories</p><label class="screen-reader-text" for="cat">All Categories</label><select name=\'cat\' id=\'cat\' class=\'postform\' >\n\t<option value=\'-1\'>Select Category</option>\n\t<option class="level-0" value="1762">Advanced Data Structure&nbsp;&nbsp;(69)</option>\n\t<option class="level-0" value="1744">Algorithm&nbsp;&nbsp;(406)</option>\n\t<option class="level-1" value="1745">&nbsp;&nbsp;&nbsp;Analysis&nbsp;&nbsp;(16)</option>\n\t<option class="level-1" value="1748">&nbsp;&nbsp;&nbsp;Backtracking&nbsp;&nbsp;(11)</option>\n\t<option class="level-1" value="1750">&nbsp;&nbsp;&nbsp;Divide and Conquer&nbsp;&nbsp;(29)</option>\n\t<option class="level-1" value="1746">&nbsp;&nbsp;&nbsp;Dynamic Programming&nbsp;&nbsp;(91)</option>\n\t<option class="level-1" value="1754">&nbsp;&nbsp;&nbsp;Geometric&nbsp;&nbsp;(14)</option>\n\t<option class="level-1" value="1747">&nbsp;&nbsp;&nbsp;Greedy&nbsp;&nbsp;(20)</option>\n\t<option class="level-1" value="1753">&nbsp;&nbsp;&nbsp;Mathematical&nbsp;&nbsp;(123)</option>\n\t<option class="level-1" value="1749">&nbsp;&nbsp;&nbsp;Pattern Searching&nbsp;&nbsp;(30)</option>\n\t<option class="level-1" value="1757">&nbsp;&nbsp;&nbsp;Randomized&nbsp;&nbsp;(19)</option>\n\t<option class="level-1" value="1751">&nbsp;&nbsp;&nbsp;Searching&nbsp;&nbsp;(43)</option>\n\t<option class="level-1" value="1752">&nbsp;&nbsp;&nbsp;Sorting&nbsp;&nbsp;(40)</option>\n\t<option class="level-0" value="3">Arrays&nbsp;&nbsp;(80)</option>\n\t<option class="level-0" value="18">Articles&nbsp;&nbsp;(25)</option>\n\t<option class="level-0" value="1761">Binary Search Tree&nbsp;&nbsp;(37)</option>\n\t<option class="level-0" value="17">Bit Magic&nbsp;&nbsp;(56)</option>\n\t<option class="level-0" value="14">C/C++ Puzzles&nbsp;&nbsp;(244)</option>\n\t<option class="level-0" value="1790">Competitive Programming&nbsp;&nbsp;(4)</option>\n\t<option class="level-0" value="1710">GBlog&nbsp;&nbsp;(57)</option>\n\t<option class="level-0" value="67">GFacts&nbsp;&nbsp;(43)</option>\n\t<option class="level-0" value="97">Graph&nbsp;&nbsp;(74)</option>\n\t<option class="level-0" value="1756">Hash&nbsp;&nbsp;(21)</option>\n\t<option class="level-0" value="1755">Heap&nbsp;&nbsp;(18)</option>\n\t<option class="level-0" value="1140">Interview Experiences&nbsp;&nbsp;(1,052)</option>\n\t<option class="level-0" value="87">Java&nbsp;&nbsp;(56)</option>\n\t<option class="level-0" value="8">Linked Lists&nbsp;&nbsp;(70)</option>\n\t<option class="level-0" value="1760">Matrix&nbsp;&nbsp;(39)</option>\n\t<option class="level-0" value="66">MCQ&nbsp;&nbsp;(95)</option>\n\t<option class="level-0" value="4">Misc&nbsp;&nbsp;(40)</option>\n\t<option class="level-0" value="5">Output&nbsp;&nbsp;(55)</option>\n\t<option class="level-0" value="1767">Project&nbsp;&nbsp;(22)</option>\n\t<option class="level-0" value="1789">Python&nbsp;&nbsp;(5)</option>\n\t<option class="level-0" value="1743">Queue&nbsp;&nbsp;(16)</option>\n\t<option class="level-0" value="1742">Stack&nbsp;&nbsp;(25)</option>\n\t<option class="level-0" value="7">Strings&nbsp;&nbsp;(61)</option>\n\t<option class="level-0" value="1788">Technical Scripter&nbsp;&nbsp;(14)</option>\n\t<option class="level-0" value="19">Trees&nbsp;&nbsp;(114)</option>\n</select>\n\n<script type=\'text/javascript\'>\n/* <![CDATA[ */\n(function() {\n\tvar dropdown = document.getElementById( "cat" );\n\tfunction onCatChange() {\n\t\tif ( dropdown.options[ dropdown.selectedIndex ].value > 0 ) {\n\t\t\tlocation.href = "http://www.geeksforgeeks.org/?cat=" + dropdown.options[ dropdown.selectedIndex ].value;\n\t\t}\n\t}\n\tdropdown.onchange = onCatChange;\n})();\n/* ]]> */\n</script>\n\n</aside><aside id="text-21" class="widget widget_text"><p class="widget-title">Recent Comments</p>\t\t\t<div class="textwidget"><script type="text/javascript" src="http://geeksforgeeks.disqus.com//recent_comments_widget.js?num_items=6&hide_avatars=1&excerpt_length=50&hide_mods=0"></script></div>\n\t\t</aside><aside id="tag_cloud-3" class="widget widget_tag_cloud"><p class="widget-title">Tags</p><div class="tagcloud"><a href=\'http://www.geeksforgeeks.org/tag/adobe/\' class=\'tag-link-148\' title=\'32 topics\' style=\'font-size: 12.905109489051pt;\'>Adobe</a>\n<a href=\'http://www.geeksforgeeks.org/tag/advance-data-structures/\' class=\'tag-link-152\' title=\'31 topics\' style=\'font-size: 12.802919708029pt;\'>Advance Data Structures</a>\n<a href=\'http://www.geeksforgeeks.org/tag/advanced-data-structures/\' class=\'tag-link-150\' title=\'38 topics\' style=\'font-size: 13.620437956204pt;\'>Advanced Data Structures</a>\n<a href=\'http://www.geeksforgeeks.org/tag/amazon/\' class=\'tag-link-141\' title=\'254 topics\' style=\'font-size: 22pt;\'>Amazon</a>\n<a href=\'http://www.geeksforgeeks.org/tag/array/\' class=\'tag-link-68\' title=\'12 topics\' style=\'font-size: 8.7153284671533pt;\'>array</a>\n<a href=\'http://www.geeksforgeeks.org/tag/backtracking/\' class=\'tag-link-112\' title=\'11 topics\' style=\'font-size: 8.4087591240876pt;\'>Backtracking</a>\n<a href=\'http://www.geeksforgeeks.org/tag/bharti-softbank-hike/\' class=\'tag-link-1214\' title=\'10 topics\' style=\'font-size: 8pt;\'>Bharti SoftBank (HIKE)</a>\n<a href=\'http://www.geeksforgeeks.org/tag/bit-magic/\' class=\'tag-link-17\' title=\'15 topics\' style=\'font-size: 9.6350364963504pt;\'>Bit Magic</a>\n<a href=\'http://www.geeksforgeeks.org/tag/c/\' class=\'tag-link-86\' title=\'18 topics\' style=\'font-size: 10.452554744526pt;\'>C++</a>\n<a href=\'http://www.geeksforgeeks.org/tag/cn/\' class=\'tag-link-142\' title=\'12 topics\' style=\'font-size: 8.7153284671533pt;\'>CN</a>\n<a href=\'http://www.geeksforgeeks.org/tag/c-puzzle/\' class=\'tag-link-69\' title=\'15 topics\' style=\'font-size: 9.6350364963504pt;\'>c puzzle</a>\n<a href=\'http://www.geeksforgeeks.org/tag/d-e-shaw/\' class=\'tag-link-823\' title=\'17 topics\' style=\'font-size: 10.248175182482pt;\'>D-E-Shaw</a>\n<a href=\'http://www.geeksforgeeks.org/tag/dbms/\' class=\'tag-link-139\' title=\'11 topics\' style=\'font-size: 8.4087591240876pt;\'>DBMS</a>\n<a href=\'http://www.geeksforgeeks.org/tag/divide-and-conquer/\' class=\'tag-link-113\' title=\'27 topics\' style=\'font-size: 12.189781021898pt;\'>Divide and Conquer</a>\n<a href=\'http://www.geeksforgeeks.org/tag/dynamic-programming/\' class=\'tag-link-111\' title=\'83 topics\' style=\'font-size: 16.992700729927pt;\'>Dynamic Programming</a>\n<a href=\'http://www.geeksforgeeks.org/tag/flipkart/\' class=\'tag-link-173\' title=\'46 topics\' style=\'font-size: 14.43795620438pt;\'>Flipkart</a>\n<a href=\'http://www.geeksforgeeks.org/tag/gate/\' class=\'tag-link-114\' title=\'88 topics\' style=\'font-size: 17.299270072993pt;\'>GATE</a>\n<a href=\'http://www.geeksforgeeks.org/tag/gate-cs-2012/\' class=\'tag-link-133\' title=\'10 topics\' style=\'font-size: 8pt;\'>GATE-CS-2012</a>\n<a href=\'http://www.geeksforgeeks.org/tag/gate-cs-c-language/\' class=\'tag-link-72\' title=\'10 topics\' style=\'font-size: 8pt;\'>GATE-CS-C-Language</a>\n<a href=\'http://www.geeksforgeeks.org/tag/gate-cs-ds-algo/\' class=\'tag-link-79\' title=\'35 topics\' style=\'font-size: 13.313868613139pt;\'>GATE-CS-DS-&amp;-Algo</a>\n<a href=\'http://www.geeksforgeeks.org/tag/gate-cs-older/\' class=\'tag-link-145\' title=\'15 topics\' style=\'font-size: 9.6350364963504pt;\'>GATE-CS-Older</a>\n<a href=\'http://www.geeksforgeeks.org/tag/gfact/\' class=\'tag-link-67\' title=\'20 topics\' style=\'font-size: 10.861313868613pt;\'>GFacts</a>\n<a href=\'http://www.geeksforgeeks.org/tag/goldman-sachs/\' class=\'tag-link-590\' title=\'20 topics\' style=\'font-size: 10.861313868613pt;\'>Goldman Sachs</a>\n<a href=\'http://www.geeksforgeeks.org/tag/google/\' class=\'tag-link-155\' title=\'15 topics\' style=\'font-size: 9.6350364963504pt;\'>Google</a>\n<a href=\'http://www.geeksforgeeks.org/tag/graph/\' class=\'tag-link-97\' title=\'45 topics\' style=\'font-size: 14.335766423358pt;\'>Graph</a>\n<a href=\'http://www.geeksforgeeks.org/tag/greedy-algorithm/\' class=\'tag-link-159\' title=\'20 topics\' style=\'font-size: 10.861313868613pt;\'>Greedy Algorithm</a>\n<a href=\'http://www.geeksforgeeks.org/tag/hashing/\' class=\'tag-link-250\' title=\'15 topics\' style=\'font-size: 9.6350364963504pt;\'>Hashing</a>\n<a href=\'http://www.geeksforgeeks.org/tag/interview-experience/\' class=\'tag-link-126\' title=\'216 topics\' style=\'font-size: 21.284671532847pt;\'>Interview Experience</a>\n<a href=\'http://www.geeksforgeeks.org/tag/java/\' class=\'tag-link-87\' title=\'62 topics\' style=\'font-size: 15.766423357664pt;\'>Java</a>\n<a href=\'http://www.geeksforgeeks.org/tag/maq-software/\' class=\'tag-link-1392\' title=\'11 topics\' style=\'font-size: 8.4087591240876pt;\'>MAQ Software</a>\n<a href=\'http://www.geeksforgeeks.org/tag/mathematicalalgo/\' class=\'tag-link-154\' title=\'73 topics\' style=\'font-size: 16.481751824818pt;\'>MathematicalAlgo</a>\n<a href=\'http://www.geeksforgeeks.org/tag/matrix/\' class=\'tag-link-211\' title=\'21 topics\' style=\'font-size: 11.065693430657pt;\'>Matrix</a>\n<a href=\'http://www.geeksforgeeks.org/tag/microsoft/\' class=\'tag-link-104\' title=\'95 topics\' style=\'font-size: 17.605839416058pt;\'>Microsoft</a>\n<a href=\'http://www.geeksforgeeks.org/tag/morgan-stanley/\' class=\'tag-link-167\' title=\'17 topics\' style=\'font-size: 10.248175182482pt;\'>Morgan Stanley</a>\n<a href=\'http://www.geeksforgeeks.org/tag/operating-systems/\' class=\'tag-link-110\' title=\'19 topics\' style=\'font-size: 10.656934306569pt;\'>Operating systems</a>\n<a href=\'http://www.geeksforgeeks.org/tag/oracle/\' class=\'tag-link-171\' title=\'24 topics\' style=\'font-size: 11.678832116788pt;\'>Oracle</a>\n<a href=\'http://www.geeksforgeeks.org/tag/pattern-searching/\' class=\'tag-link-107\' title=\'26 topics\' style=\'font-size: 11.985401459854pt;\'>Pattern Searching</a>\n<a href=\'http://www.geeksforgeeks.org/tag/puzzle/\' class=\'tag-link-70\' title=\'15 topics\' style=\'font-size: 9.6350364963504pt;\'>puzzle</a>\n<a href=\'http://www.geeksforgeeks.org/tag/python/\' class=\'tag-link-1770\' title=\'21 topics\' style=\'font-size: 11.065693430657pt;\'>Python</a>\n<a href=\'http://www.geeksforgeeks.org/tag/recursion/\' class=\'tag-link-85\' title=\'21 topics\' style=\'font-size: 11.065693430657pt;\'>Recursion</a>\n<a href=\'http://www.geeksforgeeks.org/tag/samsung/\' class=\'tag-link-180\' title=\'12 topics\' style=\'font-size: 8.7153284671533pt;\'>Samsung</a>\n<a href=\'http://www.geeksforgeeks.org/tag/sap-labs/\' class=\'tag-link-1414\' title=\'23 topics\' style=\'font-size: 11.474452554745pt;\'>SAP Labs</a>\n<a href=\'http://www.geeksforgeeks.org/tag/snapdeal/\' class=\'tag-link-1246\' title=\'16 topics\' style=\'font-size: 9.9416058394161pt;\'>SnapDeal</a>\n<a href=\'http://www.geeksforgeeks.org/tag/stack/\' class=\'tag-link-94\' title=\'17 topics\' style=\'font-size: 10.248175182482pt;\'>stack</a>\n<a href=\'http://www.geeksforgeeks.org/tag/stack-queue/\' class=\'tag-link-899\' title=\'12 topics\' style=\'font-size: 8.7153284671533pt;\'>Stack-Queue</a></div>\n</aside><aside id="text-25" class="widget widget_text">\t\t\t<div class="textwidget"><ul>\r\n<li><h2><a href="http://geeksquiz.com/">GeeksQuiz</a></h2></li>\r\n\r\n<li><h2><a href="http://code.geeksforgeeks.org/">GeeksforGeeksIDE</a></h2></li>\r\n\r\n<li><h2><a href="http://www.practice.geeksforgeeks.org/">GeeksforGeeks Practice</a></h2></li>\r\n\r\n<li><h2><a href="http://www.geeksforgeeks.org/data-structures/">Data Structures</a></h2></li>\r\n\r\n<li><h2><a href="http://www.geeksforgeeks.org/fundamentals-of-algorithms/">Algorithms</a></h2></li>\r\n\r\n<li><h2><a href="http://www.geeksforgeeks.org/c/">C Programming</a></h2></li>\r\n\r\n<li><h2><a href="http://www.geeksforgeeks.org/c-plus-plus/">C++ Programming</a></h2></li>\r\n\r\n<li><h2><a href="http://www.geeksforgeeks.org/java/">Java Programming</a></h2></li>\r\n\r\n<li><h2><a href="http://geeksquiz.com/books/">Books</a></h2></li>\r\n\r\n<li><h2><a href="http://www.geeksforgeeks.org/about/interview-corner/">Interview Experiences</a></h2></li>\r\n\r\n<li><h2><a href="http://geeksquiz.com/gate-corner-2/">GATE CS</a></h2></li>\r\n\r\n<li><h2><a href="http://www.gatecs.geeksquiz.com">GATE CS Forum</a></h2></li>\r\n\r\n<li><h2><a href="https://play.google.com/store/apps/details?id=free.programming.programming">Android App</a></h2></li>\r\n</ul>\r\n\r\n</div>\n\t\t</aside>\t\t</div><!-- #secondary -->\r\n\t\t</div><!-- #main .wrapper -->\r\n\t<footer id="colophon" role="contentinfo">\r\n\t\t<div class="site-info">\r\n\t\t<div class="clear"></div>\r\n\t\t</div><!-- .site-info -->\r\n\t\t</footer><!-- #colophon -->\r\n<center>\r\n<div class="iconic-footer">\r\n\r\n@geeksforgeeks, <a href="http://creativecommons.org/licenses/by-nc-nd/2.5/in/deed.en_US" title="Valid XHTML Strict 1.0">Some rights reserved</a>  <a href="http://www.geeksforgeeks.org/about/contact-us/"> &nbsp; &nbsp; &nbsp; &nbsp;Contact Us!</a>  <a href="http://www.geeksforgeeks.org/about/"> &nbsp; &nbsp; &nbsp; &nbsp;About Us!&nbsp; &nbsp; &nbsp; &nbsp;</a><a href="http://www.geeksforgeeks.org/new/ad.htm"> &nbsp; &nbsp; &nbsp; &nbsp;Advertise with us!&nbsp; &nbsp; &nbsp; &nbsp;</a>\r\n\r\n      \t\t\t</div></center><!-- .site-info -->\r\n\r\n\t\t\t\t<div class="clear"></div>\r\n</div><!-- #page -->\r\n\r\n        <script type="text/javascript">\r\n        // <![CDATA[\r\n        var disqus_shortname = \'geeksforgeeks\';\r\n        (function () {\r\n            var nodes = document.getElementsByTagName(\'span\');\r\n            for (var i = 0, url; i < nodes.length; i++) {\r\n                if (nodes[i].className.indexOf(\'dsq-postid\') != -1) {\r\n                    nodes[i].parentNode.setAttribute(\'data-disqus-identifier\', nodes[i].getAttribute(\'data-dsqidentifier\'));\r\n                    url = nodes[i].parentNode.href.split(\'#\', 1);\r\n                    if (url.length == 1) { url = url[0]; }\r\n                    else { url = url[1]; }\r\n                    nodes[i].parentNode.href = url + \'#disqus_thread\';\r\n                }\r\n            }\r\n            var s = document.createElement(\'script\'); \r\n            s.async = true;\r\n            s.type = \'text/javascript\';\r\n            s.src = \'//\' + disqus_shortname + \'.disqus.com/count.js\';\r\n            (document.getElementsByTagName(\'HEAD\')[0] || document.getElementsByTagName(\'BODY\')[0]).appendChild(s);\r\n        }());\r\n        // ]]>\r\n        </script>\r\n        <script type=\'text/javascript\' src=\'http://d1gjlxt8vb0knt.cloudfront.net//wp-content/plugins/syntaxhighlighter/syntaxhighlighter3/scripts/shCore.js\'></script>\n<script type=\'text/javascript\' src=\'http://d1gjlxt8vb0knt.cloudfront.net//wp-content/plugins/syntaxhighlighter/syntaxhighlighter3/scripts/shBrushCpp.js\'></script>\n<script type=\'text/javascript\'>\n\t(function(){\n\t\tvar corecss = document.createElement(\'link\');\n\t\tvar themecss = document.createElement(\'link\');\n\t\tvar corecssurl = "http://d1gjlxt8vb0knt.cloudfront.net//wp-content/plugins/syntaxhighlighter/syntaxhighlighter3/styles/shCore.css?ver=3.0.9b";\r\n\t\tif ( corecss.setAttribute ) {\r\n\t\t\t\tcorecss.setAttribute( "rel", "stylesheet" );\r\n\t\t\t\tcorecss.setAttribute( "type", "text/css" );\r\n\t\t\t\tcorecss.setAttribute( "href", corecssurl );\r\n\t\t} else {\r\n\t\t\t\tcorecss.rel = "stylesheet";\r\n\t\t\t\tcorecss.href = corecssurl;\r\n\t\t}\r\n\t\tdocument.getElementsByTagName("head")[0].insertBefore( corecss, document.getElementById("syntaxhighlighteranchor") );\r\n\t\tvar themecssurl = "http://d1gjlxt8vb0knt.cloudfront.net//wp-content/plugins/syntaxhighlighter/syntaxhighlighter3/styles/shThemeDefault.css?ver=3.0.9b";\r\n\t\tif ( themecss.setAttribute ) {\r\n\t\t\t\tthemecss.setAttribute( "rel", "stylesheet" );\r\n\t\t\t\tthemecss.setAttribute( "type", "text/css" );\r\n\t\t\t\tthemecss.setAttribute( "href", themecssurl );\r\n\t\t} else {\r\n\t\t\t\tthemecss.rel = "stylesheet";\r\n\t\t\t\tthemecss.href = themecssurl;\r\n\t\t}\r\n\t\t//document.getElementById("syntaxhighlighteranchor").appendChild(themecss);\r\n\t\tdocument.getElementsByTagName("head")[0].insertBefore( themecss, document.getElementById("syntaxhighlighteranchor") );\r\n\t})();\n\tSyntaxHighlighter.config.strings.expandSource = \'+ expand source\';\n\tSyntaxHighlighter.config.strings.help = \'?\';\n\tSyntaxHighlighter.config.strings.alert = \'SyntaxHighlighter\\n\\n\';\n\tSyntaxHighlighter.config.strings.noBrush = \'Can\\\'t find brush for: \';\n\tSyntaxHighlighter.config.strings.brushNotHtmlScript = \'Brush wasn\\\'t configured for html-script option: \';\n\tSyntaxHighlighter.defaults[\'gutter\'] = false;\n\tSyntaxHighlighter.defaults[\'pad-line-numbers\'] = true;\n\tSyntaxHighlighter.defaults[\'toolbar\'] = false;\n\tSyntaxHighlighter.all();\r\n</script>\r\n<script type=\'text/javascript\' src=\'http://d1gjlxt8vb0knt.cloudfront.net//wp-includes/js/comment-reply.min.js\'></script>\n<script type=\'text/javascript\' src=\'http://d1gjlxt8vb0knt.cloudfront.net//wp-content/themes/iconic-one/js/selectnav.js\'></script>\n\r\n\r\n<script type="text/javascript">\r\n\r\n  var _gaq = _gaq || [];\r\n  _gaq.push([\'_setAccount\', \'UA-12148232-1\']);\r\n  _gaq.push([\'_trackPageview\']);\r\n\r\n  (function() {\r\n    var ga = document.createElement(\'script\'); ga.type = \'text/javascript\'; ga.async = true;\r\n    ga.src = (\'https:\' == document.location.protocol ? \'https://ssl\' : \'http://www\') + \'.google-analytics.com/ga.js\';\r\n    var s = document.getElementsByTagName(\'script\')[0]; s.parentNode.insertBefore(ga, s);\r\n  })();\r\n\r\n</script>  \r\n<script async type="text/javascript" src="//cdn.fancybar.net/ac/fancybar.js?zoneid=1502&serve=C6ADVKE&placement=geeksforgeeks" id="_fancybar_js"></script>\r\n</body>\r\n</html>\n<!-- Dynamic page generated in 0.388 seconds. -->\n<!-- Cached page generated by WP-Super-Cache on 2016-03-02 10:47:39 -->\n\n<!-- Compression = gzip -->\n<!-- super cache -->'
p44
sb.